
AVRASM ver. 2.1.30  D:\project\IRA soccer open weight (black old PCB)\test-01 get multiple signiture from pixy\Debug\List\t1.asm Tue Oct 15 07:47:15 2019

D:\project\IRA soccer open weight (black old PCB)\test-01 get multiple signiture from pixy\Debug\List\t1.asm(1088): warning: Register r4 already defined by the .DEF directive
D:\project\IRA soccer open weight (black old PCB)\test-01 get multiple signiture from pixy\Debug\List\t1.asm(1089): warning: Register r5 already defined by the .DEF directive
D:\project\IRA soccer open weight (black old PCB)\test-01 get multiple signiture from pixy\Debug\List\t1.asm(1090): warning: Register r6 already defined by the .DEF directive
D:\project\IRA soccer open weight (black old PCB)\test-01 get multiple signiture from pixy\Debug\List\t1.asm(1091): warning: Register r7 already defined by the .DEF directive
D:\project\IRA soccer open weight (black old PCB)\test-01 get multiple signiture from pixy\Debug\List\t1.asm(1092): warning: Register r8 already defined by the .DEF directive
D:\project\IRA soccer open weight (black old PCB)\test-01 get multiple signiture from pixy\Debug\List\t1.asm(1093): warning: Register r9 already defined by the .DEF directive
D:\project\IRA soccer open weight (black old PCB)\test-01 get multiple signiture from pixy\Debug\List\t1.asm(1094): warning: Register r10 already defined by the .DEF directive
D:\project\IRA soccer open weight (black old PCB)\test-01 get multiple signiture from pixy\Debug\List\t1.asm(1095): warning: Register r11 already defined by the .DEF directive
D:\project\IRA soccer open weight (black old PCB)\test-01 get multiple signiture from pixy\Debug\List\t1.asm(1096): warning: Register r12 already defined by the .DEF directive
D:\project\IRA soccer open weight (black old PCB)\test-01 get multiple signiture from pixy\Debug\List\t1.asm(1097): warning: Register r13 already defined by the .DEF directive
                 
                 
                 ;CodeVisionAVR C Compiler V3.12 Advanced
                 ;(C) Copyright 1998-2014 Pavel Haiduc, HP InfoTech s.r.l.
                 ;http://www.hpinfotech.com
                 
                 ;Build configuration    : Debug
                 ;Chip type              : ATmega16A
                 ;Program type           : Application
                 ;Clock frequency        : 8.000000 MHz
                 ;Memory model           : Small
                 ;Optimize for           : Size
                 ;(s)printf features     : int, width
                 ;(s)scanf features      : int, width
                 ;External RAM size      : 0
                 ;Data Stack size        : 256 byte(s)
                 ;Heap size              : 0 byte(s)
                 ;Promote 'char' to 'int': Yes
                 ;'char' is unsigned     : Yes
                 ;8 bit enums            : Yes
                 ;Global 'const' stored in FLASH: Yes
                 ;Enhanced function parameter passing: Yes
                 ;Enhanced core instructions: On
                 ;Automatic register allocation for global variables: On
                 ;Smart register allocation: On
                 
                 	#define _MODEL_SMALL_
                 
                 	#pragma AVRPART ADMIN PART_NAME ATmega16A
                 	#pragma AVRPART MEMORY PROG_FLASH 16384
                 	#pragma AVRPART MEMORY EEPROM 512
                 	#pragma AVRPART MEMORY INT_SRAM SIZE 1024
                 	#pragma AVRPART MEMORY INT_SRAM START_ADDR 0x60
                 
                 	#define CALL_SUPPORTED 1
                 
                 	.LISTMAC
                 	.EQU UDRE=0x5
                 	.EQU RXC=0x7
                 	.EQU USR=0xB
                 	.EQU UDR=0xC
                 	.EQU SPSR=0xE
                 	.EQU SPDR=0xF
                 	.EQU EERE=0x0
                 	.EQU EEWE=0x1
                 	.EQU EEMWE=0x2
                 	.EQU EECR=0x1C
                 	.EQU EEDR=0x1D
                 	.EQU EEARL=0x1E
                 	.EQU EEARH=0x1F
                 	.EQU WDTCR=0x21
                 	.EQU MCUCR=0x35
                 	.EQU GICR=0x3B
                 	.EQU SPL=0x3D
                 	.EQU SPH=0x3E
                 	.EQU SREG=0x3F
                 
                 	.DEF R0X0=R0
                 	.DEF R0X1=R1
                 	.DEF R0X2=R2
                 	.DEF R0X3=R3
                 	.DEF R0X4=R4
                 	.DEF R0X5=R5
                 	.DEF R0X6=R6
                 	.DEF R0X7=R7
                 	.DEF R0X8=R8
                 	.DEF R0X9=R9
                 	.DEF R0XA=R10
                 	.DEF R0XB=R11
                 	.DEF R0XC=R12
                 	.DEF R0XD=R13
                 	.DEF R0XE=R14
                 	.DEF R0XF=R15
                 	.DEF R0X10=R16
                 	.DEF R0X11=R17
                 	.DEF R0X12=R18
                 	.DEF R0X13=R19
                 	.DEF R0X14=R20
                 	.DEF R0X15=R21
                 	.DEF R0X16=R22
                 	.DEF R0X17=R23
                 	.DEF R0X18=R24
                 	.DEF R0X19=R25
                 	.DEF R0X1A=R26
                 	.DEF R0X1B=R27
                 	.DEF R0X1C=R28
                 	.DEF R0X1D=R29
                 	.DEF R0X1E=R30
                 	.DEF R0X1F=R31
                 
                 	.EQU __SRAM_START=0x0060
                 	.EQU __SRAM_END=0x045F
                 	.EQU __DSTACK_SIZE=0x0100
                 	.EQU __HEAP_SIZE=0x0000
                 	.EQU __CLEAR_SRAM_SIZE=__SRAM_END-__SRAM_START+1
                 
                 	.MACRO __CPD1N
                 	CPI  R30,LOW(@0)
                 	LDI  R26,HIGH(@0)
                 	CPC  R31,R26
                 	LDI  R26,BYTE3(@0)
                 	CPC  R22,R26
                 	LDI  R26,BYTE4(@0)
                 	CPC  R23,R26
                 	.ENDM
                 
                 	.MACRO __CPD2N
                 	CPI  R26,LOW(@0)
                 	LDI  R30,HIGH(@0)
                 	CPC  R27,R30
                 	LDI  R30,BYTE3(@0)
                 	CPC  R24,R30
                 	LDI  R30,BYTE4(@0)
                 	CPC  R25,R30
                 	.ENDM
                 
                 	.MACRO __CPWRR
                 	CP   R@0,R@2
                 	CPC  R@1,R@3
                 	.ENDM
                 
                 	.MACRO __CPWRN
                 	CPI  R@0,LOW(@2)
                 	LDI  R30,HIGH(@2)
                 	CPC  R@1,R30
                 	.ENDM
                 
                 	.MACRO __ADDB1MN
                 	SUBI R30,LOW(-@0-(@1))
                 	.ENDM
                 
                 	.MACRO __ADDB2MN
                 	SUBI R26,LOW(-@0-(@1))
                 	.ENDM
                 
                 	.MACRO __ADDW1MN
                 	SUBI R30,LOW(-@0-(@1))
                 	SBCI R31,HIGH(-@0-(@1))
                 	.ENDM
                 
                 	.MACRO __ADDW2MN
                 	SUBI R26,LOW(-@0-(@1))
                 	SBCI R27,HIGH(-@0-(@1))
                 	.ENDM
                 
                 	.MACRO __ADDW1FN
                 	SUBI R30,LOW(-2*@0-(@1))
                 	SBCI R31,HIGH(-2*@0-(@1))
                 	.ENDM
                 
                 	.MACRO __ADDD1FN
                 	SUBI R30,LOW(-2*@0-(@1))
                 	SBCI R31,HIGH(-2*@0-(@1))
                 	SBCI R22,BYTE3(-2*@0-(@1))
                 	.ENDM
                 
                 	.MACRO __ADDD1N
                 	SUBI R30,LOW(-@0)
                 	SBCI R31,HIGH(-@0)
                 	SBCI R22,BYTE3(-@0)
                 	SBCI R23,BYTE4(-@0)
                 	.ENDM
                 
                 	.MACRO __ADDD2N
                 	SUBI R26,LOW(-@0)
                 	SBCI R27,HIGH(-@0)
                 	SBCI R24,BYTE3(-@0)
                 	SBCI R25,BYTE4(-@0)
                 	.ENDM
                 
                 	.MACRO __SUBD1N
                 	SUBI R30,LOW(@0)
                 	SBCI R31,HIGH(@0)
                 	SBCI R22,BYTE3(@0)
                 	SBCI R23,BYTE4(@0)
                 	.ENDM
                 
                 	.MACRO __SUBD2N
                 	SUBI R26,LOW(@0)
                 	SBCI R27,HIGH(@0)
                 	SBCI R24,BYTE3(@0)
                 	SBCI R25,BYTE4(@0)
                 	.ENDM
                 
                 	.MACRO __ANDBMNN
                 	LDS  R30,@0+(@1)
                 	ANDI R30,LOW(@2)
                 	STS  @0+(@1),R30
                 	.ENDM
                 
                 	.MACRO __ANDWMNN
                 	LDS  R30,@0+(@1)
                 	ANDI R30,LOW(@2)
                 	STS  @0+(@1),R30
                 	LDS  R30,@0+(@1)+1
                 	ANDI R30,HIGH(@2)
                 	STS  @0+(@1)+1,R30
                 	.ENDM
                 
                 	.MACRO __ANDD1N
                 	ANDI R30,LOW(@0)
                 	ANDI R31,HIGH(@0)
                 	ANDI R22,BYTE3(@0)
                 	ANDI R23,BYTE4(@0)
                 	.ENDM
                 
                 	.MACRO __ANDD2N
                 	ANDI R26,LOW(@0)
                 	ANDI R27,HIGH(@0)
                 	ANDI R24,BYTE3(@0)
                 	ANDI R25,BYTE4(@0)
                 	.ENDM
                 
                 	.MACRO __ORBMNN
                 	LDS  R30,@0+(@1)
                 	ORI  R30,LOW(@2)
                 	STS  @0+(@1),R30
                 	.ENDM
                 
                 	.MACRO __ORWMNN
                 	LDS  R30,@0+(@1)
                 	ORI  R30,LOW(@2)
                 	STS  @0+(@1),R30
                 	LDS  R30,@0+(@1)+1
                 	ORI  R30,HIGH(@2)
                 	STS  @0+(@1)+1,R30
                 	.ENDM
                 
                 	.MACRO __ORD1N
                 	ORI  R30,LOW(@0)
                 	ORI  R31,HIGH(@0)
                 	ORI  R22,BYTE3(@0)
                 	ORI  R23,BYTE4(@0)
                 	.ENDM
                 
                 	.MACRO __ORD2N
                 	ORI  R26,LOW(@0)
                 	ORI  R27,HIGH(@0)
                 	ORI  R24,BYTE3(@0)
                 	ORI  R25,BYTE4(@0)
                 	.ENDM
                 
                 	.MACRO __DELAY_USB
                 	LDI  R24,LOW(@0)
                 __DELAY_USB_LOOP:
                 	DEC  R24
                 	BRNE __DELAY_USB_LOOP
                 	.ENDM
                 
                 	.MACRO __DELAY_USW
                 	LDI  R24,LOW(@0)
                 	LDI  R25,HIGH(@0)
                 __DELAY_USW_LOOP:
                 	SBIW R24,1
                 	BRNE __DELAY_USW_LOOP
                 	.ENDM
                 
                 	.MACRO __GETD1S
                 	LDD  R30,Y+@0
                 	LDD  R31,Y+@0+1
                 	LDD  R22,Y+@0+2
                 	LDD  R23,Y+@0+3
                 	.ENDM
                 
                 	.MACRO __GETD2S
                 	LDD  R26,Y+@0
                 	LDD  R27,Y+@0+1
                 	LDD  R24,Y+@0+2
                 	LDD  R25,Y+@0+3
                 	.ENDM
                 
                 	.MACRO __PUTD1S
                 	STD  Y+@0,R30
                 	STD  Y+@0+1,R31
                 	STD  Y+@0+2,R22
                 	STD  Y+@0+3,R23
                 	.ENDM
                 
                 	.MACRO __PUTD2S
                 	STD  Y+@0,R26
                 	STD  Y+@0+1,R27
                 	STD  Y+@0+2,R24
                 	STD  Y+@0+3,R25
                 	.ENDM
                 
                 	.MACRO __PUTDZ2
                 	STD  Z+@0,R26
                 	STD  Z+@0+1,R27
                 	STD  Z+@0+2,R24
                 	STD  Z+@0+3,R25
                 	.ENDM
                 
                 	.MACRO __CLRD1S
                 	STD  Y+@0,R30
                 	STD  Y+@0+1,R30
                 	STD  Y+@0+2,R30
                 	STD  Y+@0+3,R30
                 	.ENDM
                 
                 	.MACRO __POINTB1MN
                 	LDI  R30,LOW(@0+(@1))
                 	.ENDM
                 
                 	.MACRO __POINTW1MN
                 	LDI  R30,LOW(@0+(@1))
                 	LDI  R31,HIGH(@0+(@1))
                 	.ENDM
                 
                 	.MACRO __POINTD1M
                 	LDI  R30,LOW(@0)
                 	LDI  R31,HIGH(@0)
                 	LDI  R22,BYTE3(@0)
                 	LDI  R23,BYTE4(@0)
                 	.ENDM
                 
                 	.MACRO __POINTW1FN
                 	LDI  R30,LOW(2*@0+(@1))
                 	LDI  R31,HIGH(2*@0+(@1))
                 	.ENDM
                 
                 	.MACRO __POINTD1FN
                 	LDI  R30,LOW(2*@0+(@1))
                 	LDI  R31,HIGH(2*@0+(@1))
                 	LDI  R22,BYTE3(2*@0+(@1))
                 	LDI  R23,BYTE4(2*@0+(@1))
                 	.ENDM
                 
                 	.MACRO __POINTB2MN
                 	LDI  R26,LOW(@0+(@1))
                 	.ENDM
                 
                 	.MACRO __POINTW2MN
                 	LDI  R26,LOW(@0+(@1))
                 	LDI  R27,HIGH(@0+(@1))
                 	.ENDM
                 
                 	.MACRO __POINTW2FN
                 	LDI  R26,LOW(2*@0+(@1))
                 	LDI  R27,HIGH(2*@0+(@1))
                 	.ENDM
                 
                 	.MACRO __POINTD2FN
                 	LDI  R26,LOW(2*@0+(@1))
                 	LDI  R27,HIGH(2*@0+(@1))
                 	LDI  R24,BYTE3(2*@0+(@1))
                 	LDI  R25,BYTE4(2*@0+(@1))
                 	.ENDM
                 
                 	.MACRO __POINTBRM
                 	LDI  R@0,LOW(@1)
                 	.ENDM
                 
                 	.MACRO __POINTWRM
                 	LDI  R@0,LOW(@2)
                 	LDI  R@1,HIGH(@2)
                 	.ENDM
                 
                 	.MACRO __POINTBRMN
                 	LDI  R@0,LOW(@1+(@2))
                 	.ENDM
                 
                 	.MACRO __POINTWRMN
                 	LDI  R@0,LOW(@2+(@3))
                 	LDI  R@1,HIGH(@2+(@3))
                 	.ENDM
                 
                 	.MACRO __POINTWRFN
                 	LDI  R@0,LOW(@2*2+(@3))
                 	LDI  R@1,HIGH(@2*2+(@3))
                 	.ENDM
                 
                 	.MACRO __GETD1N
                 	LDI  R30,LOW(@0)
                 	LDI  R31,HIGH(@0)
                 	LDI  R22,BYTE3(@0)
                 	LDI  R23,BYTE4(@0)
                 	.ENDM
                 
                 	.MACRO __GETD2N
                 	LDI  R26,LOW(@0)
                 	LDI  R27,HIGH(@0)
                 	LDI  R24,BYTE3(@0)
                 	LDI  R25,BYTE4(@0)
                 	.ENDM
                 
                 	.MACRO __GETB1MN
                 	LDS  R30,@0+(@1)
                 	.ENDM
                 
                 	.MACRO __GETB1HMN
                 	LDS  R31,@0+(@1)
                 	.ENDM
                 
                 	.MACRO __GETW1MN
                 	LDS  R30,@0+(@1)
                 	LDS  R31,@0+(@1)+1
                 	.ENDM
                 
                 	.MACRO __GETD1MN
                 	LDS  R30,@0+(@1)
                 	LDS  R31,@0+(@1)+1
                 	LDS  R22,@0+(@1)+2
                 	LDS  R23,@0+(@1)+3
                 	.ENDM
                 
                 	.MACRO __GETBRMN
                 	LDS  R@0,@1+(@2)
                 	.ENDM
                 
                 	.MACRO __GETWRMN
                 	LDS  R@0,@2+(@3)
                 	LDS  R@1,@2+(@3)+1
                 	.ENDM
                 
                 	.MACRO __GETWRZ
                 	LDD  R@0,Z+@2
                 	LDD  R@1,Z+@2+1
                 	.ENDM
                 
                 	.MACRO __GETD2Z
                 	LDD  R26,Z+@0
                 	LDD  R27,Z+@0+1
                 	LDD  R24,Z+@0+2
                 	LDD  R25,Z+@0+3
                 	.ENDM
                 
                 	.MACRO __GETB2MN
                 	LDS  R26,@0+(@1)
                 	.ENDM
                 
                 	.MACRO __GETW2MN
                 	LDS  R26,@0+(@1)
                 	LDS  R27,@0+(@1)+1
                 	.ENDM
                 
                 	.MACRO __GETD2MN
                 	LDS  R26,@0+(@1)
                 	LDS  R27,@0+(@1)+1
                 	LDS  R24,@0+(@1)+2
                 	LDS  R25,@0+(@1)+3
                 	.ENDM
                 
                 	.MACRO __PUTB1MN
                 	STS  @0+(@1),R30
                 	.ENDM
                 
                 	.MACRO __PUTW1MN
                 	STS  @0+(@1),R30
                 	STS  @0+(@1)+1,R31
                 	.ENDM
                 
                 	.MACRO __PUTD1MN
                 	STS  @0+(@1),R30
                 	STS  @0+(@1)+1,R31
                 	STS  @0+(@1)+2,R22
                 	STS  @0+(@1)+3,R23
                 	.ENDM
                 
                 	.MACRO __PUTB1EN
                 	LDI  R26,LOW(@0+(@1))
                 	LDI  R27,HIGH(@0+(@1))
                 	CALL __EEPROMWRB
                 	.ENDM
                 
                 	.MACRO __PUTW1EN
                 	LDI  R26,LOW(@0+(@1))
                 	LDI  R27,HIGH(@0+(@1))
                 	CALL __EEPROMWRW
                 	.ENDM
                 
                 	.MACRO __PUTD1EN
                 	LDI  R26,LOW(@0+(@1))
                 	LDI  R27,HIGH(@0+(@1))
                 	CALL __EEPROMWRD
                 	.ENDM
                 
                 	.MACRO __PUTBR0MN
                 	STS  @0+(@1),R0
                 	.ENDM
                 
                 	.MACRO __PUTBMRN
                 	STS  @0+(@1),R@2
                 	.ENDM
                 
                 	.MACRO __PUTWMRN
                 	STS  @0+(@1),R@2
                 	STS  @0+(@1)+1,R@3
                 	.ENDM
                 
                 	.MACRO __PUTBZR
                 	STD  Z+@1,R@0
                 	.ENDM
                 
                 	.MACRO __PUTWZR
                 	STD  Z+@2,R@0
                 	STD  Z+@2+1,R@1
                 	.ENDM
                 
                 	.MACRO __GETW1R
                 	MOV  R30,R@0
                 	MOV  R31,R@1
                 	.ENDM
                 
                 	.MACRO __GETW2R
                 	MOV  R26,R@0
                 	MOV  R27,R@1
                 	.ENDM
                 
                 	.MACRO __GETWRN
                 	LDI  R@0,LOW(@2)
                 	LDI  R@1,HIGH(@2)
                 	.ENDM
                 
                 	.MACRO __PUTW1R
                 	MOV  R@0,R30
                 	MOV  R@1,R31
                 	.ENDM
                 
                 	.MACRO __PUTW2R
                 	MOV  R@0,R26
                 	MOV  R@1,R27
                 	.ENDM
                 
                 	.MACRO __ADDWRN
                 	SUBI R@0,LOW(-@2)
                 	SBCI R@1,HIGH(-@2)
                 	.ENDM
                 
                 	.MACRO __ADDWRR
                 	ADD  R@0,R@2
                 	ADC  R@1,R@3
                 	.ENDM
                 
                 	.MACRO __SUBWRN
                 	SUBI R@0,LOW(@2)
                 	SBCI R@1,HIGH(@2)
                 	.ENDM
                 
                 	.MACRO __SUBWRR
                 	SUB  R@0,R@2
                 	SBC  R@1,R@3
                 	.ENDM
                 
                 	.MACRO __ANDWRN
                 	ANDI R@0,LOW(@2)
                 	ANDI R@1,HIGH(@2)
                 	.ENDM
                 
                 	.MACRO __ANDWRR
                 	AND  R@0,R@2
                 	AND  R@1,R@3
                 	.ENDM
                 
                 	.MACRO __ORWRN
                 	ORI  R@0,LOW(@2)
                 	ORI  R@1,HIGH(@2)
                 	.ENDM
                 
                 	.MACRO __ORWRR
                 	OR   R@0,R@2
                 	OR   R@1,R@3
                 	.ENDM
                 
                 	.MACRO __EORWRR
                 	EOR  R@0,R@2
                 	EOR  R@1,R@3
                 	.ENDM
                 
                 	.MACRO __GETWRS
                 	LDD  R@0,Y+@2
                 	LDD  R@1,Y+@2+1
                 	.ENDM
                 
                 	.MACRO __PUTBSR
                 	STD  Y+@1,R@0
                 	.ENDM
                 
                 	.MACRO __PUTWSR
                 	STD  Y+@2,R@0
                 	STD  Y+@2+1,R@1
                 	.ENDM
                 
                 	.MACRO __MOVEWRR
                 	MOV  R@0,R@2
                 	MOV  R@1,R@3
                 	.ENDM
                 
                 	.MACRO __INWR
                 	IN   R@0,@2
                 	IN   R@1,@2+1
                 	.ENDM
                 
                 	.MACRO __OUTWR
                 	OUT  @2+1,R@1
                 	OUT  @2,R@0
                 	.ENDM
                 
                 	.MACRO __CALL1MN
                 	LDS  R30,@0+(@1)
                 	LDS  R31,@0+(@1)+1
                 	ICALL
                 	.ENDM
                 
                 	.MACRO __CALL1FN
                 	LDI  R30,LOW(2*@0+(@1))
                 	LDI  R31,HIGH(2*@0+(@1))
                 	CALL __GETW1PF
                 	ICALL
                 	.ENDM
                 
                 	.MACRO __CALL2EN
                 	PUSH R26
                 	PUSH R27
                 	LDI  R26,LOW(@0+(@1))
                 	LDI  R27,HIGH(@0+(@1))
                 	CALL __EEPROMRDW
                 	POP  R27
                 	POP  R26
                 	ICALL
                 	.ENDM
                 
                 	.MACRO __CALL2EX
                 	SUBI R26,LOW(-@0)
                 	SBCI R27,HIGH(-@0)
                 	CALL __EEPROMRDD
                 	ICALL
                 	.ENDM
                 
                 	.MACRO __GETW1STACK
                 	IN   R30,SPL
                 	IN   R31,SPH
                 	ADIW R30,@0+1
                 	LD   R0,Z+
                 	LD   R31,Z
                 	MOV  R30,R0
                 	.ENDM
                 
                 	.MACRO __GETD1STACK
                 	IN   R30,SPL
                 	IN   R31,SPH
                 	ADIW R30,@0+1
                 	LD   R0,Z+
                 	LD   R1,Z+
                 	LD   R22,Z
                 	MOVW R30,R0
                 	.ENDM
                 
                 	.MACRO __NBST
                 	BST  R@0,@1
                 	IN   R30,SREG
                 	LDI  R31,0x40
                 	EOR  R30,R31
                 	OUT  SREG,R30
                 	.ENDM
                 
                 
                 	.MACRO __PUTB1SN
                 	LDD  R26,Y+@0
                 	LDD  R27,Y+@0+1
                 	SUBI R26,LOW(-@1)
                 	SBCI R27,HIGH(-@1)
                 	ST   X,R30
                 	.ENDM
                 
                 	.MACRO __PUTW1SN
                 	LDD  R26,Y+@0
                 	LDD  R27,Y+@0+1
                 	SUBI R26,LOW(-@1)
                 	SBCI R27,HIGH(-@1)
                 	ST   X+,R30
                 	ST   X,R31
                 	.ENDM
                 
                 	.MACRO __PUTD1SN
                 	LDD  R26,Y+@0
                 	LDD  R27,Y+@0+1
                 	SUBI R26,LOW(-@1)
                 	SBCI R27,HIGH(-@1)
                 	CALL __PUTDP1
                 	.ENDM
                 
                 	.MACRO __PUTB1SNS
                 	LDD  R26,Y+@0
                 	LDD  R27,Y+@0+1
                 	ADIW R26,@1
                 	ST   X,R30
                 	.ENDM
                 
                 	.MACRO __PUTW1SNS
                 	LDD  R26,Y+@0
                 	LDD  R27,Y+@0+1
                 	ADIW R26,@1
                 	ST   X+,R30
                 	ST   X,R31
                 	.ENDM
                 
                 	.MACRO __PUTD1SNS
                 	LDD  R26,Y+@0
                 	LDD  R27,Y+@0+1
                 	ADIW R26,@1
                 	CALL __PUTDP1
                 	.ENDM
                 
                 	.MACRO __PUTB1PMN
                 	LDS  R26,@0
                 	LDS  R27,@0+1
                 	SUBI R26,LOW(-@1)
                 	SBCI R27,HIGH(-@1)
                 	ST   X,R30
                 	.ENDM
                 
                 	.MACRO __PUTW1PMN
                 	LDS  R26,@0
                 	LDS  R27,@0+1
                 	SUBI R26,LOW(-@1)
                 	SBCI R27,HIGH(-@1)
                 	ST   X+,R30
                 	ST   X,R31
                 	.ENDM
                 
                 	.MACRO __PUTD1PMN
                 	LDS  R26,@0
                 	LDS  R27,@0+1
                 	SUBI R26,LOW(-@1)
                 	SBCI R27,HIGH(-@1)
                 	CALL __PUTDP1
                 	.ENDM
                 
                 	.MACRO __PUTB1PMNS
                 	LDS  R26,@0
                 	LDS  R27,@0+1
                 	ADIW R26,@1
                 	ST   X,R30
                 	.ENDM
                 
                 	.MACRO __PUTW1PMNS
                 	LDS  R26,@0
                 	LDS  R27,@0+1
                 	ADIW R26,@1
                 	ST   X+,R30
                 	ST   X,R31
                 	.ENDM
                 
                 	.MACRO __PUTD1PMNS
                 	LDS  R26,@0
                 	LDS  R27,@0+1
                 	ADIW R26,@1
                 	CALL __PUTDP1
                 	.ENDM
                 
                 	.MACRO __PUTB1RN
                 	MOVW R26,R@0
                 	SUBI R26,LOW(-@1)
                 	SBCI R27,HIGH(-@1)
                 	ST   X,R30
                 	.ENDM
                 
                 	.MACRO __PUTW1RN
                 	MOVW R26,R@0
                 	SUBI R26,LOW(-@1)
                 	SBCI R27,HIGH(-@1)
                 	ST   X+,R30
                 	ST   X,R31
                 	.ENDM
                 
                 	.MACRO __PUTD1RN
                 	MOVW R26,R@0
                 	SUBI R26,LOW(-@1)
                 	SBCI R27,HIGH(-@1)
                 	CALL __PUTDP1
                 	.ENDM
                 
                 	.MACRO __PUTB1RNS
                 	MOVW R26,R@0
                 	ADIW R26,@1
                 	ST   X,R30
                 	.ENDM
                 
                 	.MACRO __PUTW1RNS
                 	MOVW R26,R@0
                 	ADIW R26,@1
                 	ST   X+,R30
                 	ST   X,R31
                 	.ENDM
                 
                 	.MACRO __PUTD1RNS
                 	MOVW R26,R@0
                 	ADIW R26,@1
                 	CALL __PUTDP1
                 	.ENDM
                 
                 	.MACRO __PUTB1RON
                 	MOV  R26,R@0
                 	MOV  R27,R@1
                 	SUBI R26,LOW(-@2)
                 	SBCI R27,HIGH(-@2)
                 	ST   X,R30
                 	.ENDM
                 
                 	.MACRO __PUTW1RON
                 	MOV  R26,R@0
                 	MOV  R27,R@1
                 	SUBI R26,LOW(-@2)
                 	SBCI R27,HIGH(-@2)
                 	ST   X+,R30
                 	ST   X,R31
                 	.ENDM
                 
                 	.MACRO __PUTD1RON
                 	MOV  R26,R@0
                 	MOV  R27,R@1
                 	SUBI R26,LOW(-@2)
                 	SBCI R27,HIGH(-@2)
                 	CALL __PUTDP1
                 	.ENDM
                 
                 	.MACRO __PUTB1RONS
                 	MOV  R26,R@0
                 	MOV  R27,R@1
                 	ADIW R26,@2
                 	ST   X,R30
                 	.ENDM
                 
                 	.MACRO __PUTW1RONS
                 	MOV  R26,R@0
                 	MOV  R27,R@1
                 	ADIW R26,@2
                 	ST   X+,R30
                 	ST   X,R31
                 	.ENDM
                 
                 	.MACRO __PUTD1RONS
                 	MOV  R26,R@0
                 	MOV  R27,R@1
                 	ADIW R26,@2
                 	CALL __PUTDP1
                 	.ENDM
                 
                 
                 	.MACRO __GETB1SX
                 	MOVW R30,R28
                 	SUBI R30,LOW(-@0)
                 	SBCI R31,HIGH(-@0)
                 	LD   R30,Z
                 	.ENDM
                 
                 	.MACRO __GETB1HSX
                 	MOVW R30,R28
                 	SUBI R30,LOW(-@0)
                 	SBCI R31,HIGH(-@0)
                 	LD   R31,Z
                 	.ENDM
                 
                 	.MACRO __GETW1SX
                 	MOVW R30,R28
                 	SUBI R30,LOW(-@0)
                 	SBCI R31,HIGH(-@0)
                 	LD   R0,Z+
                 	LD   R31,Z
                 	MOV  R30,R0
                 	.ENDM
                 
                 	.MACRO __GETD1SX
                 	MOVW R30,R28
                 	SUBI R30,LOW(-@0)
                 	SBCI R31,HIGH(-@0)
                 	LD   R0,Z+
                 	LD   R1,Z+
                 	LD   R22,Z+
                 	LD   R23,Z
                 	MOVW R30,R0
                 	.ENDM
                 
                 	.MACRO __GETB2SX
                 	MOVW R26,R28
                 	SUBI R26,LOW(-@0)
                 	SBCI R27,HIGH(-@0)
                 	LD   R26,X
                 	.ENDM
                 
                 	.MACRO __GETW2SX
                 	MOVW R26,R28
                 	SUBI R26,LOW(-@0)
                 	SBCI R27,HIGH(-@0)
                 	LD   R0,X+
                 	LD   R27,X
                 	MOV  R26,R0
                 	.ENDM
                 
                 	.MACRO __GETD2SX
                 	MOVW R26,R28
                 	SUBI R26,LOW(-@0)
                 	SBCI R27,HIGH(-@0)
                 	LD   R0,X+
                 	LD   R1,X+
                 	LD   R24,X+
                 	LD   R25,X
                 	MOVW R26,R0
                 	.ENDM
                 
                 	.MACRO __GETBRSX
                 	MOVW R30,R28
                 	SUBI R30,LOW(-@1)
                 	SBCI R31,HIGH(-@1)
                 	LD   R@0,Z
                 	.ENDM
                 
                 	.MACRO __GETWRSX
                 	MOVW R30,R28
                 	SUBI R30,LOW(-@2)
                 	SBCI R31,HIGH(-@2)
                 	LD   R@0,Z+
                 	LD   R@1,Z
                 	.ENDM
                 
                 	.MACRO __GETBRSX2
                 	MOVW R26,R28
                 	SUBI R26,LOW(-@1)
                 	SBCI R27,HIGH(-@1)
                 	LD   R@0,X
                 	.ENDM
                 
                 	.MACRO __GETWRSX2
                 	MOVW R26,R28
                 	SUBI R26,LOW(-@2)
                 	SBCI R27,HIGH(-@2)
                 	LD   R@0,X+
                 	LD   R@1,X
                 	.ENDM
                 
                 	.MACRO __LSLW8SX
                 	MOVW R30,R28
                 	SUBI R30,LOW(-@0)
                 	SBCI R31,HIGH(-@0)
                 	LD   R31,Z
                 	CLR  R30
                 	.ENDM
                 
                 	.MACRO __PUTB1SX
                 	MOVW R26,R28
                 	SUBI R26,LOW(-@0)
                 	SBCI R27,HIGH(-@0)
                 	ST   X,R30
                 	.ENDM
                 
                 	.MACRO __PUTW1SX
                 	MOVW R26,R28
                 	SUBI R26,LOW(-@0)
                 	SBCI R27,HIGH(-@0)
                 	ST   X+,R30
                 	ST   X,R31
                 	.ENDM
                 
                 	.MACRO __PUTD1SX
                 	MOVW R26,R28
                 	SUBI R26,LOW(-@0)
                 	SBCI R27,HIGH(-@0)
                 	ST   X+,R30
                 	ST   X+,R31
                 	ST   X+,R22
                 	ST   X,R23
                 	.ENDM
                 
                 	.MACRO __CLRW1SX
                 	MOVW R26,R28
                 	SUBI R26,LOW(-@0)
                 	SBCI R27,HIGH(-@0)
                 	ST   X+,R30
                 	ST   X,R30
                 	.ENDM
                 
                 	.MACRO __CLRD1SX
                 	MOVW R26,R28
                 	SUBI R26,LOW(-@0)
                 	SBCI R27,HIGH(-@0)
                 	ST   X+,R30
                 	ST   X+,R30
                 	ST   X+,R30
                 	ST   X,R30
                 	.ENDM
                 
                 	.MACRO __PUTB2SX
                 	MOVW R30,R28
                 	SUBI R30,LOW(-@0)
                 	SBCI R31,HIGH(-@0)
                 	ST   Z,R26
                 	.ENDM
                 
                 	.MACRO __PUTW2SX
                 	MOVW R30,R28
                 	SUBI R30,LOW(-@0)
                 	SBCI R31,HIGH(-@0)
                 	ST   Z+,R26
                 	ST   Z,R27
                 	.ENDM
                 
                 	.MACRO __PUTD2SX
                 	MOVW R30,R28
                 	SUBI R30,LOW(-@0)
                 	SBCI R31,HIGH(-@0)
                 	ST   Z+,R26
                 	ST   Z+,R27
                 	ST   Z+,R24
                 	ST   Z,R25
                 	.ENDM
                 
                 	.MACRO __PUTBSRX
                 	MOVW R30,R28
                 	SUBI R30,LOW(-@1)
                 	SBCI R31,HIGH(-@1)
                 	ST   Z,R@0
                 	.ENDM
                 
                 	.MACRO __PUTWSRX
                 	MOVW R30,R28
                 	SUBI R30,LOW(-@2)
                 	SBCI R31,HIGH(-@2)
                 	ST   Z+,R@0
                 	ST   Z,R@1
                 	.ENDM
                 
                 	.MACRO __PUTB1SNX
                 	MOVW R26,R28
                 	SUBI R26,LOW(-@0)
                 	SBCI R27,HIGH(-@0)
                 	LD   R0,X+
                 	LD   R27,X
                 	MOV  R26,R0
                 	SUBI R26,LOW(-@1)
                 	SBCI R27,HIGH(-@1)
                 	ST   X,R30
                 	.ENDM
                 
                 	.MACRO __PUTW1SNX
                 	MOVW R26,R28
                 	SUBI R26,LOW(-@0)
                 	SBCI R27,HIGH(-@0)
                 	LD   R0,X+
                 	LD   R27,X
                 	MOV  R26,R0
                 	SUBI R26,LOW(-@1)
                 	SBCI R27,HIGH(-@1)
                 	ST   X+,R30
                 	ST   X,R31
                 	.ENDM
                 
                 	.MACRO __PUTD1SNX
                 	MOVW R26,R28
                 	SUBI R26,LOW(-@0)
                 	SBCI R27,HIGH(-@0)
                 	LD   R0,X+
                 	LD   R27,X
                 	MOV  R26,R0
                 	SUBI R26,LOW(-@1)
                 	SBCI R27,HIGH(-@1)
                 	ST   X+,R30
                 	ST   X+,R31
                 	ST   X+,R22
                 	ST   X,R23
                 	.ENDM
                 
                 	.MACRO __MULBRR
                 	MULS R@0,R@1
                 	MOVW R30,R0
                 	.ENDM
                 
                 	.MACRO __MULBRRU
                 	MUL  R@0,R@1
                 	MOVW R30,R0
                 	.ENDM
                 
                 	.MACRO __MULBRR0
                 	MULS R@0,R@1
                 	.ENDM
                 
                 	.MACRO __MULBRRU0
                 	MUL  R@0,R@1
                 	.ENDM
                 
                 	.MACRO __MULBNWRU
                 	LDI  R26,@2
                 	MUL  R26,R@0
                 	MOVW R30,R0
                 	MUL  R26,R@1
                 	ADD  R31,R0
                 	.ENDM
                 
                 ;NAME DEFINITIONS FOR GLOBAL VARIABLES ALLOCATED TO REGISTERS
                 	.DEF _speed=R4
                 	.DEF _speed_msb=R5
                 	.DEF _i=R6
                 	.DEF _i_msb=R7
                 	.DEF _cmp=R8
                 	.DEF _cmp_msb=R9
                 	.DEF _c=R10
                 	.DEF _c_msb=R11
                 	.DEF _x=R12
                 	.DEF _x_msb=R13
                 
                 	.CSEG
                 	.ORG 0x00
                 
                 ;START OF CODE MARKER
                 __START_OF_CODE:
                 
                 ;INTERRUPT VECTORS
000000 940c 0056 	JMP  __RESET
000002 940c 0000 	JMP  0x00
000004 940c 0000 	JMP  0x00
000006 940c 0000 	JMP  0x00
000008 940c 0000 	JMP  0x00
00000a 940c 0000 	JMP  0x00
00000c 940c 0000 	JMP  0x00
00000e 940c 0000 	JMP  0x00
000010 940c 0000 	JMP  0x00
000012 940c 0000 	JMP  0x00
000014 940c 0000 	JMP  0x00
000016 940c 0000 	JMP  0x00
000018 940c 0000 	JMP  0x00
00001a 940c 0000 	JMP  0x00
00001c 940c 0000 	JMP  0x00
00001e 940c 0000 	JMP  0x00
000020 940c 0000 	JMP  0x00
000022 940c 070a 	JMP  _twi_int_handler
000024 940c 0000 	JMP  0x00
000026 940c 0000 	JMP  0x00
000028 940c 0000 	JMP  0x00
                 
                 ;REGISTER BIT VARIABLES INITIALIZATION
                 __REG_BIT_VARS:
00002a 0000      	.DW  0x0000
                 
                 ;GLOBAL REGISTER VARIABLES INITIALIZATION
                 __REG_VARS:
00002b 00ff
00002c 0000      	.DB  0xFF,0x0,0x0,0x0
00002d 0000
00002e 0000      	.DB  0x0,0x0,0x0,0x0
                 
                 _0x6:
D:\project\IRA soccer open weight (black old PCB)\test-01 get multiple signiture from pixy\Debug\List\t1.asm(1138): warning: .cseg .db misalignment - padding zero byte
00002f 0093      	.DB  0x93
                 _0x7:
D:\project\IRA soccer open weight (black old PCB)\test-01 get multiple signiture from pixy\Debug\List\t1.asm(1140): warning: .cseg .db misalignment - padding zero byte
000030 0048      	.DB  0x48
                 _0x8:
D:\project\IRA soccer open weight (black old PCB)\test-01 get multiple signiture from pixy\Debug\List\t1.asm(1142): warning: .cseg .db misalignment - padding zero byte
000031 0054      	.DB  0x54
                 _0x0:
000032 3d58
000033 5900
000034 003d      	.DB  0x58,0x3D,0x0,0x59,0x3D,0x0
                 _0x2020003:
D:\project\IRA soccer open weight (black old PCB)\test-01 get multiple signiture from pixy\Debug\List\t1.asm(1146): warning: .cseg .db misalignment - padding zero byte
000035 0007      	.DB  0x7
                 _0x2040003:
000036 c080      	.DB  0x80,0xC0
                 _0x2060060:
D:\project\IRA soccer open weight (black old PCB)\test-01 get multiple signiture from pixy\Debug\List\t1.asm(1150): warning: .cseg .db misalignment - padding zero byte
000037 0001      	.DB  0x1
                 _0x2060000:
000038 4e2d
000039 4e41
00003a 4900
00003b 464e      	.DB  0x2D,0x4E,0x41,0x4E,0x0,0x49,0x4E,0x46
D:\project\IRA soccer open weight (black old PCB)\test-01 get multiple signiture from pixy\Debug\List\t1.asm(1153): warning: .cseg .db misalignment - padding zero byte
00003c 0000      	.DB  0x0
                 
                 __GLOBAL_INI_TBL:
00003d 0001      	.DW  0x01
00003e 0002      	.DW  0x02
00003f 0054      	.DW  __REG_BIT_VARS*2
                 
000040 0008      	.DW  0x08
000041 0004      	.DW  0x04
000042 0056      	.DW  __REG_VARS*2
                 
000043 0001      	.DW  0x01
000044 016e      	.DW  _x_robot
000045 005e      	.DW  _0x6*2
                 
000046 0001      	.DW  0x01
000047 0170      	.DW  _y_robot
000048 0060      	.DW  _0x7*2
                 
000049 0001      	.DW  0x01
00004a 0179      	.DW  _address
00004b 0062      	.DW  _0x8*2
                 
00004c 0001      	.DW  0x01
00004d 0162      	.DW  _twi_result
00004e 006a      	.DW  _0x2020003*2
                 
00004f 0002      	.DW  0x02
000050 0187      	.DW  __base_y_G102
000051 006c      	.DW  _0x2040003*2
                 
000052 0001      	.DW  0x01
000053 018e      	.DW  __seed_G103
000054 006e      	.DW  _0x2060060*2
                 
                 _0xFFFFFFFF:
000055 0000      	.DW  0
                 
                 #define __GLOBAL_INI_TBL_PRESENT 1
                 
                 __RESET:
000056 94f8      	CLI
000057 27ee      	CLR  R30
000058 bbec      	OUT  EECR,R30
                 
                 ;INTERRUPT VECTORS ARE PLACED
                 ;AT THE START OF FLASH
000059 e0f1      	LDI  R31,1
00005a bffb      	OUT  GICR,R31
00005b bfeb      	OUT  GICR,R30
00005c bfe5      	OUT  MCUCR,R30
                 
                 ;CLEAR R2-R14
00005d e08d      	LDI  R24,(14-2)+1
00005e e0a2      	LDI  R26,2
00005f 27bb      	CLR  R27
                 __CLEAR_REG:
000060 93ed      	ST   X+,R30
000061 958a      	DEC  R24
000062 f7e9      	BRNE __CLEAR_REG
                 
                 ;CLEAR SRAM
000063 e080      	LDI  R24,LOW(__CLEAR_SRAM_SIZE)
000064 e094      	LDI  R25,HIGH(__CLEAR_SRAM_SIZE)
000065 e6a0      	LDI  R26,__SRAM_START
                 __CLEAR_SRAM:
000066 93ed      	ST   X+,R30
000067 9701      	SBIW R24,1
000068 f7e9      	BRNE __CLEAR_SRAM
                 
                 ;GLOBAL VARIABLES INITIALIZATION
000069 e7ea      	LDI  R30,LOW(__GLOBAL_INI_TBL*2)
00006a e0f0      	LDI  R31,HIGH(__GLOBAL_INI_TBL*2)
                 __GLOBAL_INI_NEXT:
00006b 9185      	LPM  R24,Z+
00006c 9195      	LPM  R25,Z+
00006d 9700      	SBIW R24,0
00006e f061      	BREQ __GLOBAL_INI_END
00006f 91a5      	LPM  R26,Z+
000070 91b5      	LPM  R27,Z+
000071 9005      	LPM  R0,Z+
000072 9015      	LPM  R1,Z+
000073 01bf      	MOVW R22,R30
000074 01f0      	MOVW R30,R0
                 __GLOBAL_INI_LOOP:
000075 9005      	LPM  R0,Z+
000076 920d      	ST   X+,R0
000077 9701      	SBIW R24,1
000078 f7e1      	BRNE __GLOBAL_INI_LOOP
000079 01fb      	MOVW R30,R22
00007a cff0      	RJMP __GLOBAL_INI_NEXT
                 __GLOBAL_INI_END:
                 
                 ;HARDWARE STACK POINTER INITIALIZATION
00007b e5ef      	LDI  R30,LOW(__SRAM_END-__HEAP_SIZE)
00007c bfed      	OUT  SPL,R30
00007d e0e4      	LDI  R30,HIGH(__SRAM_END-__HEAP_SIZE)
00007e bfee      	OUT  SPH,R30
                 
                 ;DATA STACK POINTER INITIALIZATION
00007f e6c0      	LDI  R28,LOW(__SRAM_START+__DSTACK_SIZE)
000080 e0d1      	LDI  R29,HIGH(__SRAM_START+__DSTACK_SIZE)
                 
000081 940c 03e9 	JMP  _main
                 
                 	.ESEG
                 	.ORG 0
                 
                 	.DSEG
                 	.ORG 0x160
                 
                 	.CSEG
                 ;/*******************************************************
                 ;This program was created by the
                 ;CodeWizardAVR V3.12 Advanced
                 ;Automatic Program Generator
                 ;© Copyright 1998-2014 Pavel Haiduc, HP InfoTech s.r.l.
                 ;http://www.hpinfotech.com
                 ;
                 ;Project :
                 ;Version :
                 ;Date    : 9/28/2019
                 ;Author  :
                 ;Company :
                 ;Comments:
                 ;
                 ;
                 ;Chip type               : ATmega16A
                 ;Program type            : Application
                 ;AVR Core Clock frequency: 8.000000 MHz
                 ;Memory model            : Small
                 ;External RAM size       : 0
                 ;Data Stack size         : 256
                 ;*******************************************************/
                 ;
                 ;#include <mega16a.h>
                 	#ifndef __SLEEP_DEFINED__
                 	#define __SLEEP_DEFINED__
                 	.EQU __se_bit=0x40
                 	.EQU __sm_mask=0xB0
                 	.EQU __sm_powerdown=0x20
                 	.EQU __sm_powersave=0x30
                 	.EQU __sm_standby=0xA0
                 	.EQU __sm_ext_standby=0xB0
                 	.EQU __sm_adc_noise_red=0x10
                 	.SET power_ctrl_reg=mcucr
                 	#endif
                 ;#include <delay.h>
                 ;#include <math.h>
                 ;#include <twi.h>
                 ;// I2C Bus functions
                 ;#include <i2c.h>
                 ;
                 ;// Alphanumeric LCD functions
                 ;#include <alcd.h>
                 ;
                 ;// Declare your global variables here
                 ;
                 ;// Voltage Reference: AVCC pin
                 ;#define ADC_VREF_TYPE ((0<<REFS1) | (1<<REFS0) | (0<<ADLAR))
                 ;
                 ;// Read the AD conversion result
                 ;unsigned int read_adc(unsigned char adc_input)
                 ; 0000 0029 {
                 
                 	.CSEG
                 ; 0000 002A ADMUX=adc_input | ADC_VREF_TYPE;
                 ;	adc_input -> Y+0
                 ; 0000 002B // Delay needed for the stabilization of the ADC input voltage
                 ; 0000 002C delay_us(10);
                 ; 0000 002D // Start the AD conversion
                 ; 0000 002E ADCSRA|=(1<<ADSC);
                 ; 0000 002F // Wait for the AD conversion to complete
                 ; 0000 0030 while ((ADCSRA & (1<<ADIF))==0);
                 ; 0000 0031 ADCSRA|=(1<<ADIF);
                 ; 0000 0032 return ADCW;
                 ; 0000 0033 }
                 ;
                 ;///////////////////////////////////////////////////////////////////vars
                 ;int speed = 255;
                 ;int i;
                 ;int cmp,c=0;
                 ;int x, y,width,height,checksum, signature;
                 ;char a;
                 ;int x_robot = 147, y_robot = 72, ball_angle, ball, ball_distance;
                 
                 	.DSEG
                 ;bool is_ball = false;
                 ;
                 ;
                 ;//////////////////////////////////////////////////////////////////////////////////PIXY-CMUCAM5
                 ;#define I2C_7BIT_DEVICE_ADDRESS 0x54
                 ;#define EEPROM_BUS_ADDRESS (I2C_7BIT_DEVICE_ADDRESS << 1)
                 ;
                 ;unsigned int  address=0x54;
                 ;unsigned char read()
                 ; 0000 0045 {
                 
                 	.CSEG
                 _read:
                 ; .FSTART _read
                 ; 0000 0046 unsigned char data;
                 ; 0000 0047 i2c_start();
000083 931a      	ST   -Y,R17
                 ;	data -> R17
000084 940e 0a7d 	CALL _i2c_start
                 ; 0000 0048 i2c_write(EEPROM_BUS_ADDRESS | 0);
000086 eaa8      	LDI  R26,LOW(168)
000087 940e 0ab1 	CALL _i2c_write
                 ; 0000 0049 i2c_write(address >> 8);
000089 91e0 017a 	LDS  R30,_address+1
00008b 2fae      	MOV  R26,R30
00008c 940e 0ab1 	CALL _i2c_write
                 ; 0000 004A i2c_write((unsigned char) address);
00008e 91a0 0179 	LDS  R26,_address
000090 940e 0ab1 	CALL _i2c_write
                 ; 0000 004B i2c_start();
000092 940e 0a7d 	CALL _i2c_start
                 ; 0000 004C i2c_write(EEPROM_BUS_ADDRESS | 1);
000094 eaa9      	LDI  R26,LOW(169)
000095 940e 0910 	CALL SUBOPT_0x0
                 ; 0000 004D data=i2c_read(0);
                 ; 0000 004E i2c_stop();
                 ; 0000 004F return data;
000097 9119      	LD   R17,Y+
000098 9508      	RET
                 ; 0000 0050 }
                 ; .FEND
                 ;//////////////////////////////////////////////////////////////////////////////////CMP-READ
                 ;#define EEPROM_BUS_ADDRES 0xc0
                 ;/* read/ a byte from the EEPROM */
                 ;unsigned char compass_read(unsigned char addres)
                 ; 0000 0055     {
                 _compass_read:
                 ; .FSTART _compass_read
                 ; 0000 0056     unsigned char data;
                 ; 0000 0057     i2c_start();
000099 93aa      	ST   -Y,R26
00009a 931a      	ST   -Y,R17
                 ;	addres -> Y+1
                 ;	data -> R17
00009b 940e 0a7d 	CALL _i2c_start
                 ; 0000 0058     i2c_write(EEPROM_BUS_ADDRES);
00009d eca0      	LDI  R26,LOW(192)
00009e 940e 0ab1 	CALL _i2c_write
                 ; 0000 0059     i2c_write(addres);
0000a0 81a9      	LDD  R26,Y+1
0000a1 940e 0ab1 	CALL _i2c_write
                 ; 0000 005A     i2c_start();
0000a3 940e 0a7d 	CALL _i2c_start
                 ; 0000 005B     i2c_write(EEPROM_BUS_ADDRES | 1);
0000a5 eca1      	LDI  R26,LOW(193)
0000a6 940e 0910 	CALL SUBOPT_0x0
                 ; 0000 005C     data=i2c_read(0);
                 ; 0000 005D     i2c_stop();
                 ; 0000 005E     return data;
0000a8 8118      	LDD  R17,Y+0
0000a9 c1d2      	RJMP _0x20C0007
                 ; 0000 005F     }
                 ; .FEND
                 ;
                 ;void readcmp()
                 ; 0000 0062     {
                 _readcmp:
                 ; .FSTART _readcmp
                 ; 0000 0063     //if(PIND.6 == 1)  c = compass_read(1);
                 ; 0000 0064     cmp = compass_read(1) - c;
0000aa e0a1      	LDI  R26,LOW(1)
0000ab dfed      	RCALL _compass_read
0000ac e0f0      	LDI  R31,0
0000ad 19ea      	SUB  R30,R10
0000ae 09fb      	SBC  R31,R11
0000af 014f      	MOVW R8,R30
                 ; 0000 0065 
                 ; 0000 0066     if(cmp>128)       cmp=cmp-255;
0000b0 e8e0      	LDI  R30,LOW(128)
0000b1 e0f0      	LDI  R31,HIGH(128)
0000b2 15e8      	CP   R30,R8
0000b3 05f9      	CPC  R31,R9
0000b4 f42c      	BRGE _0x9
0000b5 efef      	LDI  R30,LOW(255)
0000b6 e0f0      	LDI  R31,HIGH(255)
                +
0000b7 1a8e     +SUB R8 , R30
0000b8 0a9f     +SBC R9 , R31
                 	__SUBWRR 8,9,30,31
                 ; 0000 0067     else if(cmp<-128) cmp=cmp+255;
0000b9 c009      	RJMP _0xA
                 _0x9:
0000ba e8e0      	LDI  R30,LOW(65408)
0000bb efff      	LDI  R31,HIGH(65408)
0000bc 168e      	CP   R8,R30
0000bd 069f      	CPC  R9,R31
0000be f424      	BRGE _0xB
0000bf 01f4      	MOVW R30,R8
0000c0 50e1      	SUBI R30,LOW(-255)
0000c1 4fff      	SBCI R31,HIGH(-255)
0000c2 014f      	MOVW R8,R30
                 ; 0000 0068 
                 ; 0000 0069     if(cmp >= 0)
                 _0xB:
                 _0xA:
0000c3 2400      	CLR  R0
0000c4 1480      	CP   R8,R0
0000c5 0490      	CPC  R9,R0
0000c6 f074      	BRLT _0xC
                 ; 0000 006A         {
                 ; 0000 006B         lcd_gotoxy(11,0);
0000c7 e0eb      	LDI  R30,LOW(11)
0000c8 940e 091a 	CALL SUBOPT_0x1
                 ; 0000 006C         lcd_putchar('+');
0000ca e2ab      	LDI  R26,LOW(43)
0000cb 940e 08ae 	CALL _lcd_putchar
                 ; 0000 006D         lcd_putchar((cmp/100)%10+'0');
0000cd 01d4      	MOVW R26,R8
0000ce 940e 091e 	CALL SUBOPT_0x2
                 ; 0000 006E         lcd_putchar((cmp/10)%10+'0');
0000d0 01d4      	MOVW R26,R8
0000d1 940e 092b 	CALL SUBOPT_0x3
                 ; 0000 006F         lcd_putchar((cmp/1)%10+'0');
0000d3 01d4      	MOVW R26,R8
0000d4 c010      	RJMP _0x72
                 ; 0000 0070         }
                 ; 0000 0071     else
                 _0xC:
                 ; 0000 0072         {
                 ; 0000 0073         lcd_gotoxy(11,0);
0000d5 e0eb      	LDI  R30,LOW(11)
0000d6 940e 091a 	CALL SUBOPT_0x1
                 ; 0000 0074         lcd_putchar('-');
0000d8 e2ad      	LDI  R26,LOW(45)
0000d9 940e 08ae 	CALL _lcd_putchar
                 ; 0000 0075         lcd_putchar((-cmp/100)%10+'0');
0000db 940e 0938 	CALL SUBOPT_0x4
0000dd 940e 091e 	CALL SUBOPT_0x2
                 ; 0000 0076         lcd_putchar((-cmp/10)%10+'0');
0000df 940e 0938 	CALL SUBOPT_0x4
0000e1 940e 092b 	CALL SUBOPT_0x3
                 ; 0000 0077         lcd_putchar((-cmp/1)%10+'0');
0000e3 940e 0938 	CALL SUBOPT_0x4
                 _0x72:
0000e5 e0ea      	LDI  R30,LOW(10)
0000e6 e0f0      	LDI  R31,HIGH(10)
0000e7 940e 093d 	CALL SUBOPT_0x5
                 ; 0000 0078         }
                 ; 0000 0079 
                 ; 0000 007A     if(cmp<30 && cmp>-30) cmp *= 2;
0000e9 e1ee      	LDI  R30,LOW(30)
0000ea e0f0      	LDI  R31,HIGH(30)
0000eb 168e      	CP   R8,R30
0000ec 069f      	CPC  R9,R31
0000ed f42c      	BRGE _0xF
0000ee eee2      	LDI  R30,LOW(65506)
0000ef efff      	LDI  R31,HIGH(65506)
0000f0 15e8      	CP   R30,R8
0000f1 05f9      	CPC  R31,R9
0000f2 f00c      	BRLT _0x10
                 _0xF:
0000f3 c003      	RJMP _0xE
                 _0x10:
0000f4 0c88      	LSL  R8
0000f5 1c99      	ROL  R9
                 ; 0000 007B     else  cmp *= 1;
0000f6 c001      	RJMP _0x11
                 _0xE:
0000f7 0144      	MOVW R8,R8
                 ; 0000 007C     cmp *= -1;
                 _0x11:
0000f8 01f4      	MOVW R30,R8
0000f9 efaf      	LDI  R26,LOW(65535)
0000fa efbf      	LDI  R27,HIGH(65535)
0000fb 940e 0ce9 	CALL __MULW12
0000fd 014f      	MOVW R8,R30
                 ; 0000 007D 
                 ; 0000 007E     }
0000fe 9508      	RET
                 ; .FEND
                 ;
                 ;
                 ;void motor(int L1, int L2, int R2,int R1 )
                 ; 0000 0082     {
                 _motor:
                 ; .FSTART _motor
                 ; 0000 0083     L1 += cmp;
0000ff 93ba      	ST   -Y,R27
000100 93aa      	ST   -Y,R26
                 ;	L1 -> Y+6
                 ;	L2 -> Y+4
                 ;	R2 -> Y+2
                 ;	R1 -> Y+0
000101 01f4      	MOVW R30,R8
000102 81ae      	LDD  R26,Y+6
000103 81bf      	LDD  R27,Y+6+1
000104 0fea      	ADD  R30,R26
000105 1ffb      	ADC  R31,R27
000106 83ee      	STD  Y+6,R30
000107 83ff      	STD  Y+6+1,R31
                 ; 0000 0084     L2 += cmp;
000108 01f4      	MOVW R30,R8
000109 81ac      	LDD  R26,Y+4
00010a 81bd      	LDD  R27,Y+4+1
00010b 0fea      	ADD  R30,R26
00010c 1ffb      	ADC  R31,R27
00010d 83ec      	STD  Y+4,R30
00010e 83fd      	STD  Y+4+1,R31
                 ; 0000 0085     R1 += cmp;
00010f 01f4      	MOVW R30,R8
000110 81a8      	LD   R26,Y
000111 81b9      	LDD  R27,Y+1
000112 0fea      	ADD  R30,R26
000113 1ffb      	ADC  R31,R27
000114 83e8      	ST   Y,R30
000115 83f9      	STD  Y+1,R31
                 ; 0000 0086     R2 += cmp;
000116 01f4      	MOVW R30,R8
000117 81aa      	LDD  R26,Y+2
000118 81bb      	LDD  R27,Y+2+1
000119 0fea      	ADD  R30,R26
00011a 1ffb      	ADC  R31,R27
00011b 83ea      	STD  Y+2,R30
00011c 83fb      	STD  Y+2+1,R31
                 ; 0000 0087 
                 ; 0000 0088 
                 ; 0000 0089     if (L1>255)  L1=255;
00011d 81ae      	LDD  R26,Y+6
00011e 81bf      	LDD  R27,Y+6+1
00011f 30a0      	CPI  R26,LOW(0x100)
000120 e0e1      	LDI  R30,HIGH(0x100)
000121 07be      	CPC  R27,R30
000122 f024      	BRLT _0x12
000123 efef      	LDI  R30,LOW(255)
000124 e0f0      	LDI  R31,HIGH(255)
000125 83ee      	STD  Y+6,R30
000126 83ff      	STD  Y+6+1,R31
                 ; 0000 008A     if (L1<-255) L1=-255;
                 _0x12:
000127 81ae      	LDD  R26,Y+6
000128 81bf      	LDD  R27,Y+6+1
000129 30a1      	CPI  R26,LOW(0xFF01)
00012a efef      	LDI  R30,HIGH(0xFF01)
00012b 07be      	CPC  R27,R30
00012c f424      	BRGE _0x13
00012d e0e1      	LDI  R30,LOW(65281)
00012e efff      	LDI  R31,HIGH(65281)
00012f 83ee      	STD  Y+6,R30
000130 83ff      	STD  Y+6+1,R31
                 ; 0000 008B 
                 ; 0000 008C     if (L2>255)  L2=255;
                 _0x13:
000131 81ac      	LDD  R26,Y+4
000132 81bd      	LDD  R27,Y+4+1
000133 30a0      	CPI  R26,LOW(0x100)
000134 e0e1      	LDI  R30,HIGH(0x100)
000135 07be      	CPC  R27,R30
000136 f024      	BRLT _0x14
000137 efef      	LDI  R30,LOW(255)
000138 e0f0      	LDI  R31,HIGH(255)
000139 83ec      	STD  Y+4,R30
00013a 83fd      	STD  Y+4+1,R31
                 ; 0000 008D     if (L2<-255) L2=-255;
                 _0x14:
00013b 81ac      	LDD  R26,Y+4
00013c 81bd      	LDD  R27,Y+4+1
00013d 30a1      	CPI  R26,LOW(0xFF01)
00013e efef      	LDI  R30,HIGH(0xFF01)
00013f 07be      	CPC  R27,R30
000140 f424      	BRGE _0x15
000141 e0e1      	LDI  R30,LOW(65281)
000142 efff      	LDI  R31,HIGH(65281)
000143 83ec      	STD  Y+4,R30
000144 83fd      	STD  Y+4+1,R31
                 ; 0000 008E 
                 ; 0000 008F     if (R2>255)  R2=255;
                 _0x15:
000145 81aa      	LDD  R26,Y+2
000146 81bb      	LDD  R27,Y+2+1
000147 30a0      	CPI  R26,LOW(0x100)
000148 e0e1      	LDI  R30,HIGH(0x100)
000149 07be      	CPC  R27,R30
00014a f024      	BRLT _0x16
00014b efef      	LDI  R30,LOW(255)
00014c e0f0      	LDI  R31,HIGH(255)
00014d 83ea      	STD  Y+2,R30
00014e 83fb      	STD  Y+2+1,R31
                 ; 0000 0090     if (R2<-255) R2=-255;
                 _0x16:
00014f 81aa      	LDD  R26,Y+2
000150 81bb      	LDD  R27,Y+2+1
000151 30a1      	CPI  R26,LOW(0xFF01)
000152 efef      	LDI  R30,HIGH(0xFF01)
000153 07be      	CPC  R27,R30
000154 f424      	BRGE _0x17
000155 e0e1      	LDI  R30,LOW(65281)
000156 efff      	LDI  R31,HIGH(65281)
000157 83ea      	STD  Y+2,R30
000158 83fb      	STD  Y+2+1,R31
                 ; 0000 0091 
                 ; 0000 0092     if (R1>255)  R1=255;
                 _0x17:
000159 81a8      	LD   R26,Y
00015a 81b9      	LDD  R27,Y+1
00015b 30a0      	CPI  R26,LOW(0x100)
00015c e0e1      	LDI  R30,HIGH(0x100)
00015d 07be      	CPC  R27,R30
00015e f024      	BRLT _0x18
00015f efef      	LDI  R30,LOW(255)
000160 e0f0      	LDI  R31,HIGH(255)
000161 83e8      	ST   Y,R30
000162 83f9      	STD  Y+1,R31
                 ; 0000 0093     if (R1<-255) R1=-255;
                 _0x18:
000163 81a8      	LD   R26,Y
000164 81b9      	LDD  R27,Y+1
000165 30a1      	CPI  R26,LOW(0xFF01)
000166 efef      	LDI  R30,HIGH(0xFF01)
000167 07be      	CPC  R27,R30
000168 f424      	BRGE _0x19
000169 e0e1      	LDI  R30,LOW(65281)
00016a efff      	LDI  R31,HIGH(65281)
00016b 83e8      	ST   Y,R30
00016c 83f9      	STD  Y+1,R31
                 ; 0000 0094 
                 ; 0000 0095     ///////////////////L1
                 ; 0000 0096     if (L1>0)
                 _0x19:
00016d 81ae      	LDD  R26,Y+6
00016e 81bf      	LDD  R27,Y+6+1
00016f 940e 0d51 	CALL __CPW02
000171 f41c      	BRGE _0x1A
                 ; 0000 0097         {
                 ; 0000 0098         PORTD.3=0;
000172 9893      	CBI  0x12,3
                 ; 0000 0099         OCR2=L1;
000173 81ee      	LDD  R30,Y+6
000174 c003      	RJMP _0x73
                 ; 0000 009A         }
                 ; 0000 009B     else
                 _0x1A:
                 ; 0000 009C         {
                 ; 0000 009D         PORTD.3=1;
000175 9a93      	SBI  0x12,3
                 ; 0000 009E         OCR2=255+L1;
000176 81ee      	LDD  R30,Y+6
000177 50e1      	SUBI R30,-LOW(255)
                 _0x73:
000178 bde3      	OUT  0x23,R30
                 ; 0000 009F         }
                 ; 0000 00A0     ///////////////////L2
                 ; 0000 00A1     if (L2>0)
000179 81ac      	LDD  R26,Y+4
00017a 81bd      	LDD  R27,Y+4+1
00017b 940e 0d51 	CALL __CPW02
00017d f424      	BRGE _0x20
                 ; 0000 00A2         {
                 ; 0000 00A3         PORTD.2=0;
00017e 9892      	CBI  0x12,2
                 ; 0000 00A4         OCR1A=L2;
00017f 81ec      	LDD  R30,Y+4
000180 81fd      	LDD  R31,Y+4+1
000181 c005      	RJMP _0x74
                 ; 0000 00A5         }
                 ; 0000 00A6     else
                 _0x20:
                 ; 0000 00A7         {
                 ; 0000 00A8         PORTD.2=1;
000182 9a92      	SBI  0x12,2
                 ; 0000 00A9         OCR1A=255 + L2;
000183 81ec      	LDD  R30,Y+4
000184 81fd      	LDD  R31,Y+4+1
000185 50e1      	SUBI R30,LOW(-255)
000186 4fff      	SBCI R31,HIGH(-255)
                 _0x74:
000187 bdfb      	OUT  0x2A+1,R31
000188 bdea      	OUT  0x2A,R30
                 ; 0000 00AA         }
                 ; 0000 00AB     ///////////////////R2
                 ; 0000 00AC     if (R2>0)
000189 81aa      	LDD  R26,Y+2
00018a 81bb      	LDD  R27,Y+2+1
00018b 940e 0d51 	CALL __CPW02
00018d f424      	BRGE _0x26
                 ; 0000 00AD         {
                 ; 0000 00AE         PORTD.1=0;
00018e 9891      	CBI  0x12,1
                 ; 0000 00AF         OCR1B=R2;
00018f 81ea      	LDD  R30,Y+2
000190 81fb      	LDD  R31,Y+2+1
000191 c005      	RJMP _0x75
                 ; 0000 00B0         }
                 ; 0000 00B1     else
                 _0x26:
                 ; 0000 00B2         {
                 ; 0000 00B3         PORTD.1=1;
000192 9a91      	SBI  0x12,1
                 ; 0000 00B4         OCR1B=255+R2;
000193 81ea      	LDD  R30,Y+2
000194 81fb      	LDD  R31,Y+2+1
000195 50e1      	SUBI R30,LOW(-255)
000196 4fff      	SBCI R31,HIGH(-255)
                 _0x75:
000197 bdf9      	OUT  0x28+1,R31
000198 bde8      	OUT  0x28,R30
                 ; 0000 00B5         }
                 ; 0000 00B6     ///////////////////R1
                 ; 0000 00B7     if (R1>0)
000199 81a8      	LD   R26,Y
00019a 81b9      	LDD  R27,Y+1
00019b 940e 0d51 	CALL __CPW02
00019d f41c      	BRGE _0x2C
                 ; 0000 00B8         {
                 ; 0000 00B9         PORTD.0=0;
00019e 9890      	CBI  0x12,0
                 ; 0000 00BA         OCR0=R1;
00019f 81e8      	LD   R30,Y
0001a0 c003      	RJMP _0x76
                 ; 0000 00BB         }
                 ; 0000 00BC     else
                 _0x2C:
                 ; 0000 00BD         {
                 ; 0000 00BE         PORTD.0=1;
0001a1 9a90      	SBI  0x12,0
                 ; 0000 00BF         OCR0=255+R1;
0001a2 81e8      	LD   R30,Y
0001a3 50e1      	SUBI R30,-LOW(255)
                 _0x76:
0001a4 bfec      	OUT  0x3C,R30
                 ; 0000 00C0         }
                 ; 0000 00C1     }
0001a5 940c 0672 	JMP  _0x20C0004
                 ; .FEND
                 ;
                 ;void move(int direction)
                 ; 0000 00C4     {
                 _move:
                 ; .FSTART _move
                 ; 0000 00C5     if(direction == 0)      motor(speed   , speed   , -speed  , -speed   );
0001a7 93ba      	ST   -Y,R27
0001a8 93aa      	ST   -Y,R26
                 ;	direction -> Y+0
0001a9 81e8      	LD   R30,Y
0001aa 81f9      	LDD  R31,Y+1
0001ab 9730      	SBIW R30,0
0001ac f441      	BRNE _0x32
0001ad 925a      	ST   -Y,R5
0001ae 924a      	ST   -Y,R4
0001af 940e 0943 	CALL SUBOPT_0x6
0001b1 940e 0949 	CALL SUBOPT_0x7
0001b3 01df      	MOVW R26,R30
0001b4 df4a      	RCALL _motor
                 ; 0000 00C6     if(direction == 1)      motor(speed   , speed/2 , -speed  , -speed/2 );
                 _0x32:
0001b5 81a8      	LD   R26,Y
0001b6 81b9      	LDD  R27,Y+1
0001b7 9711      	SBIW R26,1
0001b8 f451      	BRNE _0x33
0001b9 940e 094f 	CALL SUBOPT_0x8
0001bb 940e 0949 	CALL SUBOPT_0x7
0001bd 940e 0949 	CALL SUBOPT_0x7
0001bf 940e 0957 	CALL SUBOPT_0x9
0001c1 01df      	MOVW R26,R30
0001c2 df3c      	RCALL _motor
                 ; 0000 00C7     if(direction == 2)      motor(speed   , 0       , -speed  , 0        );
                 _0x33:
0001c3 81a8      	LD   R26,Y
0001c4 81b9      	LDD  R27,Y+1
0001c5 9712      	SBIW R26,2
0001c6 f421      	BRNE _0x34
0001c7 940e 095d 	CALL SUBOPT_0xA
0001c9 940e 0962 	CALL SUBOPT_0xB
                 ; 0000 00C8     if(direction == 3)      motor(speed   , -speed/2, -speed  , speed/2  );
                 _0x34:
0001cb 81a8      	LD   R26,Y
0001cc 81b9      	LDD  R27,Y+1
0001cd 9713      	SBIW R26,3
0001ce f451      	BRNE _0x35
0001cf 940e 0943 	CALL SUBOPT_0x6
0001d1 940e 0957 	CALL SUBOPT_0x9
0001d3 940e 0949 	CALL SUBOPT_0x7
0001d5 940e 0968 	CALL SUBOPT_0xC
0001d7 01df      	MOVW R26,R30
0001d8 df26      	RCALL _motor
                 ; 0000 00C9     if(direction == 4)      motor(speed   , -speed  , -speed  , speed    );
                 _0x35:
0001d9 81a8      	LD   R26,Y
0001da 81b9      	LDD  R27,Y+1
0001db 9714      	SBIW R26,4
0001dc f431      	BRNE _0x36
0001dd 940e 0943 	CALL SUBOPT_0x6
0001df 940e 0949 	CALL SUBOPT_0x7
0001e1 940e 0970 	CALL SUBOPT_0xD
                 ; 0000 00CA     if(direction == 5)      motor(speed/2 , -speed  , -speed/2, speed    );
                 _0x36:
0001e3 81a8      	LD   R26,Y
0001e4 81b9      	LDD  R27,Y+1
0001e5 9715      	SBIW R26,5
0001e6 f451      	BRNE _0x37
0001e7 940e 0975 	CALL SUBOPT_0xE
0001e9 940e 0949 	CALL SUBOPT_0x7
0001eb 940e 0949 	CALL SUBOPT_0x7
0001ed 940e 0957 	CALL SUBOPT_0x9
0001ef 940e 0970 	CALL SUBOPT_0xD
                 ; 0000 00CB     if(direction == 6)      motor(0       , -speed  , 0       , speed    );
                 _0x37:
0001f1 81a8      	LD   R26,Y
0001f2 81b9      	LDD  R27,Y+1
0001f3 9716      	SBIW R26,6
0001f4 f441      	BRNE _0x38
0001f5 e0e0      	LDI  R30,LOW(0)
0001f6 e0f0      	LDI  R31,HIGH(0)
0001f7 940e 0949 	CALL SUBOPT_0x7
0001f9 940e 097b 	CALL SUBOPT_0xF
0001fb 940e 0970 	CALL SUBOPT_0xD
                 ; 0000 00CC     if(direction == 7)      motor(-speed/2, -speed  , speed/2 , speed    );
                 _0x38:
0001fd 81a8      	LD   R26,Y
0001fe 81b9      	LDD  R27,Y+1
0001ff 9717      	SBIW R26,7
000200 f461      	BRNE _0x39
000201 940e 0980 	CALL SUBOPT_0x10
000203 940e 0957 	CALL SUBOPT_0x9
000205 93fa      	ST   -Y,R31
000206 93ea      	ST   -Y,R30
000207 937a      	ST   -Y,R23
000208 936a      	ST   -Y,R22
000209 940e 0975 	CALL SUBOPT_0xE
00020b 940e 0970 	CALL SUBOPT_0xD
                 ; 0000 00CD 
                 ; 0000 00CE     if(direction == 8)      motor(-speed  , -speed  , speed   , speed    );
                 _0x39:
00020d 81a8      	LD   R26,Y
00020e 81b9      	LDD  R27,Y+1
00020f 9718      	SBIW R26,8
000210 f431      	BRNE _0x3A
000211 940e 0985 	CALL SUBOPT_0x11
000213 940e 098b 	CALL SUBOPT_0x12
000215 01d2      	MOVW R26,R4
000216 dee8      	RCALL _motor
                 ; 0000 00CF 
                 ; 0000 00D0     if(direction == 9)      motor(-speed   , -speed/2, speed   , speed/2 );
                 _0x3A:
000217 81a8      	LD   R26,Y
000218 81b9      	LDD  R27,Y+1
000219 9719      	SBIW R26,9
00021a f451      	BRNE _0x3B
00021b 940e 0985 	CALL SUBOPT_0x11
00021d 940e 0957 	CALL SUBOPT_0x9
00021f 93fa      	ST   -Y,R31
000220 93ea      	ST   -Y,R30
000221 940e 094f 	CALL SUBOPT_0x8
000223 01df      	MOVW R26,R30
000224 deda      	RCALL _motor
                 ; 0000 00D1     if(direction == 10)     motor(-speed   , 0       , speed   , 0       );
                 _0x3B:
000225 81a8      	LD   R26,Y
000226 81b9      	LDD  R27,Y+1
000227 971a      	SBIW R26,10
000228 f451      	BRNE _0x3C
000229 01f2      	MOVW R30,R4
00022a 940e 0cd0 	CALL __ANEGW1
00022c 940e 097b 	CALL SUBOPT_0xF
00022e 940e 098b 	CALL SUBOPT_0x12
000230 e0a0      	LDI  R26,LOW(0)
000231 e0b0      	LDI  R27,0
000232 decc      	RCALL _motor
                 ; 0000 00D2     if(direction == 11)     motor(-speed   , speed/2 , speed   , -speed/2);
                 _0x3C:
000233 81a8      	LD   R26,Y
000234 81b9      	LDD  R27,Y+1
000235 971b      	SBIW R26,11
000236 f469      	BRNE _0x3D
000237 940e 0980 	CALL SUBOPT_0x10
000239 940e 0968 	CALL SUBOPT_0xC
00023b 940e 098b 	CALL SUBOPT_0x12
00023d 01db      	MOVW R26,R22
00023e e0e2      	LDI  R30,LOW(2)
00023f e0f0      	LDI  R31,HIGH(2)
000240 940e 0d01 	CALL __DIVW21
000242 01df      	MOVW R26,R30
000243 debb      	RCALL _motor
                 ; 0000 00D3     if(direction == 12)     motor(-speed   , speed   , speed   , -speed  );
                 _0x3D:
000244 81a8      	LD   R26,Y
000245 81b9      	LDD  R27,Y+1
000246 971c      	SBIW R26,12
000247 f441      	BRNE _0x3E
000248 940e 0985 	CALL SUBOPT_0x11
00024a 925a      	ST   -Y,R5
00024b 924a      	ST   -Y,R4
00024c 925a      	ST   -Y,R5
00024d 924a      	ST   -Y,R4
00024e 01df      	MOVW R26,R30
00024f deaf      	RCALL _motor
                 ; 0000 00D4     if(direction == 13)     motor(-speed/2 , speed   , speed/2 , -speed  );
                 _0x3E:
000250 81a8      	LD   R26,Y
000251 81b9      	LDD  R27,Y+1
000252 971d      	SBIW R26,13
000253 f461      	BRNE _0x3F
000254 940e 0980 	CALL SUBOPT_0x10
000256 940e 0957 	CALL SUBOPT_0x9
000258 93fa      	ST   -Y,R31
000259 93ea      	ST   -Y,R30
00025a 940e 094f 	CALL SUBOPT_0x8
00025c 93fa      	ST   -Y,R31
00025d 93ea      	ST   -Y,R30
00025e 01db      	MOVW R26,R22
00025f de9f      	RCALL _motor
                 ; 0000 00D5     if(direction == 14)     motor(0        , speed   , 0       , -speed  );
                 _0x3F:
000260 81a8      	LD   R26,Y
000261 81b9      	LDD  R27,Y+1
000262 971e      	SBIW R26,14
000263 f441      	BRNE _0x40
000264 e0e0      	LDI  R30,LOW(0)
000265 e0f0      	LDI  R31,HIGH(0)
000266 93fa      	ST   -Y,R31
000267 93ea      	ST   -Y,R30
000268 940e 095d 	CALL SUBOPT_0xA
00026a 01df      	MOVW R26,R30
00026b de93      	RCALL _motor
                 ; 0000 00D6     if(direction == 15)     motor(speed/2  , speed   , -speed/2, -speed  );
                 _0x40:
00026c 81a8      	LD   R26,Y
00026d 81b9      	LDD  R27,Y+1
00026e 971f      	SBIW R26,15
00026f f461      	BRNE _0x41
000270 940e 0975 	CALL SUBOPT_0xE
000272 93fa      	ST   -Y,R31
000273 93ea      	ST   -Y,R30
000274 940e 0943 	CALL SUBOPT_0x6
000276 940e 0957 	CALL SUBOPT_0x9
000278 940e 0949 	CALL SUBOPT_0x7
00027a 01df      	MOVW R26,R30
00027b de83      	RCALL _motor
                 ; 0000 00D7     }
                 _0x41:
                 _0x20C0007:
00027c 9622      	ADIW R28,2
00027d 9508      	RET
                 ; .FEND
                 ;
                 ;void read_pixy()
                 ; 0000 00DA     {
                 _read_pixy:
                 ; .FSTART _read_pixy
                 ; 0000 00DB     a=read();
00027e 940e 0990 	CALL SUBOPT_0x13
                 ; 0000 00DC     if(a==0xaa)
000280 3aaa      	CPI  R26,LOW(0xAA)
000281 f009      	BREQ PC+2
000282 c060      	RJMP _0x42
                 ; 0000 00DD       {
                 ; 0000 00DE       a=read();
000283 940e 0990 	CALL SUBOPT_0x13
                 ; 0000 00DF       if(a==0x55)
000285 35a5      	CPI  R26,LOW(0x55)
000286 f009      	BREQ PC+2
000287 c05b      	RJMP _0x43
                 ; 0000 00E0         {
                 ; 0000 00E1         read();
000288 ddfa      	RCALL _read
                 ; 0000 00E2         checksum = read();
000289 ddf9      	RCALL _read
00028a e0f0      	LDI  R31,0
00028b 940e 0997 	CALL SUBOPT_0x14
                 ; 0000 00E3         checksum += read() * 255;
00028d efaf      	LDI  R26,LOW(255)
00028e 9fea      	MUL  R30,R26
00028f 01f0      	MOVW R30,R0
000290 91a0 0169 	LDS  R26,_checksum
000292 91b0 016a 	LDS  R27,_checksum+1
000294 0fea      	ADD  R30,R26
000295 1ffb      	ADC  R31,R27
000296 940e 0997 	CALL SUBOPT_0x14
                 ; 0000 00E4         signature = read();
000298 e0f0      	LDI  R31,0
000299 940e 099d 	CALL SUBOPT_0x15
                 ; 0000 00E5         signature += read() * 255;
00029b efaf      	LDI  R26,LOW(255)
00029c 9fea      	MUL  R30,R26
00029d 01f0      	MOVW R30,R0
00029e 91a0 016b 	LDS  R26,_signature
0002a0 91b0 016c 	LDS  R27,_signature+1
0002a2 0fea      	ADD  R30,R26
0002a3 1ffb      	ADC  R31,R27
0002a4 940e 099d 	CALL SUBOPT_0x15
                 ; 0000 00E6         x = read();
0002a6 2ece      	MOV  R12,R30
0002a7 24dd      	CLR  R13
                 ; 0000 00E7         x+=read()*255;
0002a8 940e 09a3 	CALL SUBOPT_0x16
                +
0002aa 0ece     +ADD R12 , R30
0002ab 1edf     +ADC R13 , R31
                 	__ADDWRR 12,13,30,31
                 ; 0000 00E8         y = read();
0002ac ddd6      	RCALL _read
0002ad e0f0      	LDI  R31,0
0002ae 93e0 0163 	STS  _y,R30
0002b0 93f0 0164 	STS  _y+1,R31
                 ; 0000 00E9         y += read() * 255;
0002b2 940e 09a3 	CALL SUBOPT_0x16
0002b4 940e 09a9 	CALL SUBOPT_0x17
0002b6 0fea      	ADD  R30,R26
0002b7 1ffb      	ADC  R31,R27
0002b8 93e0 0163 	STS  _y,R30
0002ba 93f0 0164 	STS  _y+1,R31
                 ; 0000 00EA         width = read();
0002bc ddc6      	RCALL _read
0002bd e0f0      	LDI  R31,0
0002be 93e0 0165 	STS  _width,R30
0002c0 93f0 0166 	STS  _width+1,R31
                 ; 0000 00EB         width += read() * 255;
0002c2 940e 09a3 	CALL SUBOPT_0x16
0002c4 91a0 0165 	LDS  R26,_width
0002c6 91b0 0166 	LDS  R27,_width+1
0002c8 0fea      	ADD  R30,R26
0002c9 1ffb      	ADC  R31,R27
0002ca 93e0 0165 	STS  _width,R30
0002cc 93f0 0166 	STS  _width+1,R31
                 ; 0000 00EC         height = read();
0002ce ddb4      	RCALL _read
0002cf e0f0      	LDI  R31,0
0002d0 93e0 0167 	STS  _height,R30
0002d2 93f0 0168 	STS  _height+1,R31
                 ; 0000 00ED         height += read() * 255;
0002d4 940e 09a3 	CALL SUBOPT_0x16
0002d6 91a0 0167 	LDS  R26,_height
0002d8 91b0 0168 	LDS  R27,_height+1
0002da 0fea      	ADD  R30,R26
0002db 1ffb      	ADC  R31,R27
0002dc 93e0 0167 	STS  _height,R30
0002de 93f0 0168 	STS  _height+1,R31
                 ; 0000 00EE         is_ball = true;
0002e0 e0e1      	LDI  R30,LOW(1)
0002e1 93e0 0178 	STS  _is_ball,R30
                 ; 0000 00EF         }
                 ; 0000 00F0       }
                 _0x43:
                 ; 0000 00F1     if(a != 0) is_ball = true;
                 _0x42:
0002e3 91e0 016d 	LDS  R30,_a
0002e5 30e0      	CPI  R30,0
0002e6 f011      	BREQ _0x44
0002e7 e0e1      	LDI  R30,LOW(1)
0002e8 c001      	RJMP _0x77
                 ; 0000 00F2     else is_ball = false;
                 _0x44:
0002e9 e0e0      	LDI  R30,LOW(0)
                 _0x77:
0002ea 93e0 0178 	STS  _is_ball,R30
                 ; 0000 00F3     ball_angle = atan2(y_robot - y, x_robot - x) * 180 / PI;
0002ec 940e 09a9 	CALL SUBOPT_0x17
0002ee 91e0 0170 	LDS  R30,_y_robot
0002f0 91f0 0171 	LDS  R31,_y_robot+1
0002f2 940e 09ae 	CALL SUBOPT_0x18
0002f4 91e0 016e 	LDS  R30,_x_robot
0002f6 91f0 016f 	LDS  R31,_x_robot+1
0002f8 19ec      	SUB  R30,R12
0002f9 09fd      	SBC  R31,R13
0002fa 940e 09b7 	CALL SUBOPT_0x19
0002fc 940e 06b1 	CALL _atan2
                +
0002fe e0a0     +LDI R26 , LOW ( 0x43340000 )
0002ff e0b0     +LDI R27 , HIGH ( 0x43340000 )
000300 e384     +LDI R24 , BYTE3 ( 0x43340000 )
000301 e493     +LDI R25 , BYTE4 ( 0x43340000 )
                 	__GETD2N 0x43340000
000302 940e 09be 	CALL SUBOPT_0x1A
                +
000304 edeb     +LDI R30 , LOW ( 0x40490FDB )
000305 e0ff     +LDI R31 , HIGH ( 0x40490FDB )
000306 e469     +LDI R22 , BYTE3 ( 0x40490FDB )
000307 e470     +LDI R23 , BYTE4 ( 0x40490FDB )
                 	__GETD1N 0x40490FDB
000308 940e 0c34 	CALL __DIVF21
00030a e7a2      	LDI  R26,LOW(_ball_angle)
00030b e0b1      	LDI  R27,HIGH(_ball_angle)
00030c 940e 0b25 	CALL __CFD1
00030e 93ed      	ST   X+,R30
00030f 93fc      	ST   X,R31
                 ; 0000 00F4     if (ball_angle < 0) ball_angle += 360;
000310 91a0 0173 	LDS  R26,_ball_angle+1
000312 23aa      	TST  R26
000313 f442      	BRPL _0x46
000314 940e 09c3 	CALL SUBOPT_0x1B
000316 59e8      	SUBI R30,LOW(-360)
000317 4ffe      	SBCI R31,HIGH(-360)
000318 93e0 0172 	STS  _ball_angle,R30
00031a 93f0 0173 	STS  _ball_angle+1,R31
                 ; 0000 00F5     ball_angle = 360 - ball_angle;
                 _0x46:
00031c 91a0 0172 	LDS  R26,_ball_angle
00031e 91b0 0173 	LDS  R27,_ball_angle+1
000320 e6e8      	LDI  R30,LOW(360)
000321 e0f1      	LDI  R31,HIGH(360)
000322 1bea      	SUB  R30,R26
000323 0bfb      	SBC  R31,R27
000324 93e0 0172 	STS  _ball_angle,R30
000326 93f0 0173 	STS  _ball_angle+1,R31
                 ; 0000 00F6     for(i = 0; i < 16; i++)
000328 2466      	CLR  R6
000329 2477      	CLR  R7
                 _0x48:
00032a e1e0      	LDI  R30,LOW(16)
00032b e0f0      	LDI  R31,HIGH(16)
00032c 166e      	CP   R6,R30
00032d 067f      	CPC  R7,R31
00032e f00c      	BRLT PC+2
00032f c04d      	RJMP _0x49
                 ; 0000 00F7         {
                 ; 0000 00F8         if(ball_angle <= 11.25) ball = 0;
000330 940e 09c8 	CALL SUBOPT_0x1C
000332 940e 09ca 	CALL SUBOPT_0x1D
000334 940e 0c79 	CALL __CMPF12
000336 f011      	BREQ PC+3
000337 f008      	BRCS PC+2
000338 c006      	RJMP _0x4A
000339 e0e0      	LDI  R30,LOW(0)
00033a 93e0 0174 	STS  _ball,R30
00033c 93e0 0175 	STS  _ball+1,R30
                 ; 0000 00F9         else if(ball_angle >= 348.5) ball = 0;
00033e c03a      	RJMP _0x4B
                 _0x4A:
00033f 940e 09c8 	CALL SUBOPT_0x1C
                +
000341 e0e0     +LDI R30 , LOW ( 0x43AE4000 )
000342 e4f0     +LDI R31 , HIGH ( 0x43AE4000 )
000343 ea6e     +LDI R22 , BYTE3 ( 0x43AE4000 )
000344 e473     +LDI R23 , BYTE4 ( 0x43AE4000 )
                 	__GETD1N 0x43AE4000
000345 940e 0c79 	CALL __CMPF12
000347 f028      	BRLO _0x4C
000348 93e0 0174 	STS  _ball,R30
00034a 93e0 0175 	STS  _ball+1,R30
                 ; 0000 00FA         else if((ball_angle - 11.25 >= i * 22.5) && (ball_angle-11.25 < (i+1) * 22.5))
00034c c02c      	RJMP _0x4D
                 _0x4C:
00034d 940e 09c8 	CALL SUBOPT_0x1C
00034f 940e 09cf 	CALL SUBOPT_0x1E
000351 937f      	PUSH R23
000352 936f      	PUSH R22
000353 93ff      	PUSH R31
000354 93ef      	PUSH R30
000355 01f3      	MOVW R30,R6
000356 940e 09d5 	CALL SUBOPT_0x1F
000358 91af      	POP  R26
000359 91bf      	POP  R27
00035a 918f      	POP  R24
00035b 919f      	POP  R25
00035c 940e 0c79 	CALL __CMPF12
00035e f098      	BRLO _0x4F
00035f 940e 09c8 	CALL SUBOPT_0x1C
000361 940e 09cf 	CALL SUBOPT_0x1E
000363 937f      	PUSH R23
000364 936f      	PUSH R22
000365 93ff      	PUSH R31
000366 93ef      	PUSH R30
000367 01f3      	MOVW R30,R6
000368 9631      	ADIW R30,1
000369 940e 09d5 	CALL SUBOPT_0x1F
00036b 91af      	POP  R26
00036c 91bf      	POP  R27
00036d 918f      	POP  R24
00036e 919f      	POP  R25
00036f 940e 0c79 	CALL __CMPF12
000371 f008      	BRLO _0x50
                 _0x4F:
000372 c006      	RJMP _0x4E
                 _0x50:
                 ; 0000 00FB             ball = i + 1;
000373 01f3      	MOVW R30,R6
000374 9631      	ADIW R30,1
000375 93e0 0174 	STS  _ball,R30
000377 93f0 0175 	STS  _ball+1,R31
                 ; 0000 00FC         }
                 _0x4E:
                 _0x4D:
                 _0x4B:
000379 01f3      	MOVW R30,R6
00037a 9631      	ADIW R30,1
00037b 013f      	MOVW R6,R30
00037c cfad      	RJMP _0x48
                 _0x49:
                 ; 0000 00FD     ball_distance = sqrt(pow(x-(x_robot+35) , 2) + pow(y-y_robot, 2));
00037d 91a0 016e 	LDS  R26,_x_robot
00037f 91b0 016f 	LDS  R27,_x_robot+1
000381 9693      	ADIW R26,35
000382 01f6      	MOVW R30,R12
000383 940e 09ae 	CALL SUBOPT_0x18
000385 940e 09e0 	CALL SUBOPT_0x20
000387 937f      	PUSH R23
000388 936f      	PUSH R22
000389 93ff      	PUSH R31
00038a 93ef      	PUSH R30
00038b 91a0 0170 	LDS  R26,_y_robot
00038d 91b0 0171 	LDS  R27,_y_robot+1
00038f 91e0 0163 	LDS  R30,_y
000391 91f0 0164 	LDS  R31,_y+1
000393 940e 09ae 	CALL SUBOPT_0x18
000395 940e 09e0 	CALL SUBOPT_0x20
000397 91af      	POP  R26
000398 91bf      	POP  R27
000399 918f      	POP  R24
00039a 919f      	POP  R25
00039b 940e 0b96 	CALL __ADDF12
00039d 01df      	MOVW R26,R30
00039e 01cb      	MOVW R24,R22
00039f 940e 0c99 	CALL _sqrt
0003a1 e7a6      	LDI  R26,LOW(_ball_distance)
0003a2 e0b1      	LDI  R27,HIGH(_ball_distance)
0003a3 940e 0b25 	CALL __CFD1
0003a5 93ed      	ST   X+,R30
0003a6 93fc      	ST   X,R31
                 ; 0000 00FE 
                 ; 0000 00FF //    if(ball_angle>=0)
                 ; 0000 0100 //        {
                 ; 0000 0101 //        lcd_gotoxy(0,0);
                 ; 0000 0102 //        lcd_putchar('+');
                 ; 0000 0103 //        lcd_putchar((ball_angle/100)%10+'0');
                 ; 0000 0104 //        lcd_putchar((ball_angle/10)%10+'0');
                 ; 0000 0105 //        lcd_putchar((ball_angle/1)%10+'0');
                 ; 0000 0106 //        }
                 ; 0000 0107 //    else
                 ; 0000 0108 //        {
                 ; 0000 0109 //        lcd_gotoxy(0,0);
                 ; 0000 010A //        lcd_putchar('-');
                 ; 0000 010B //        lcd_putchar((-ball_angle/100)%10+'0');
                 ; 0000 010C //        lcd_putchar((-ball_angle/10)%10+'0');
                 ; 0000 010D //        lcd_putchar((-ball_angle/1)%10+'0');
                 ; 0000 010E //        }
                 ; 0000 010F     lcd_gotoxy(5,1);
0003a7 e0e5      	LDI  R30,LOW(5)
0003a8 93ea      	ST   -Y,R30
0003a9 e0a1      	LDI  R26,LOW(1)
0003aa 940e 088f 	CALL _lcd_gotoxy
                 ; 0000 0110     lcd_putchar((ball/10)%10+'0');
0003ac 940e 09e6 	CALL SUBOPT_0x21
0003ae 940e 092b 	CALL SUBOPT_0x3
                 ; 0000 0111     lcd_putchar((ball/1)%10+'0');
0003b0 940e 09e6 	CALL SUBOPT_0x21
0003b2 940e 09eb 	CALL SUBOPT_0x22
                 ; 0000 0112 
                 ; 0000 0113     lcd_gotoxy(0,1);
0003b4 e0e0      	LDI  R30,LOW(0)
0003b5 93ea      	ST   -Y,R30
0003b6 e0a1      	LDI  R26,LOW(1)
0003b7 940e 088f 	CALL _lcd_gotoxy
                 ; 0000 0114     lcd_putchar((ball_distance/100)%10+'0');
0003b9 940e 09ee 	CALL SUBOPT_0x23
0003bb 940e 091e 	CALL SUBOPT_0x2
                 ; 0000 0115     lcd_putchar((ball_distance/10)%10+'0');
0003bd 940e 09ee 	CALL SUBOPT_0x23
0003bf 940e 092b 	CALL SUBOPT_0x3
                 ; 0000 0116     lcd_putchar((ball_distance/1)%10+'0');
0003c1 940e 09ee 	CALL SUBOPT_0x23
0003c3 940e 09eb 	CALL SUBOPT_0x22
                 ; 0000 0117 
                 ; 0000 0118     lcd_gotoxy(0,0);
0003c5 e0e0      	LDI  R30,LOW(0)
0003c6 940e 091a 	CALL SUBOPT_0x1
                 ; 0000 0119     lcd_putsf("X=");
                +
0003c8 e6a4     +LDI R26 , LOW ( 2 * _0x0 + ( 0 ) )
0003c9 e0b0     +LDI R27 , HIGH ( 2 * _0x0 + ( 0 ) )
                 	__POINTW2FN _0x0,0
0003ca 940e 08ce 	CALL _lcd_putsf
                 ; 0000 011A     lcd_putchar((x/100)%10+'0');
0003cc 01d6      	MOVW R26,R12
0003cd 940e 091e 	CALL SUBOPT_0x2
                 ; 0000 011B     lcd_putchar((x/10)%10+'0');
0003cf 01d6      	MOVW R26,R12
0003d0 940e 092b 	CALL SUBOPT_0x3
                 ; 0000 011C     lcd_putchar((x/1)%10+'0');
0003d2 01d6      	MOVW R26,R12
0003d3 940e 09eb 	CALL SUBOPT_0x22
                 ; 0000 011D 
                 ; 0000 011E     lcd_gotoxy(5,0);
0003d5 e0e5      	LDI  R30,LOW(5)
0003d6 940e 091a 	CALL SUBOPT_0x1
                 ; 0000 011F     lcd_putsf("Y=");
                +
0003d8 e6a7     +LDI R26 , LOW ( 2 * _0x0 + ( 3 ) )
0003d9 e0b0     +LDI R27 , HIGH ( 2 * _0x0 + ( 3 ) )
                 	__POINTW2FN _0x0,3
0003da 940e 08ce 	CALL _lcd_putsf
                 ; 0000 0120     lcd_putchar((y/100)%10+'0');
0003dc 940e 09a9 	CALL SUBOPT_0x17
0003de 940e 091e 	CALL SUBOPT_0x2
                 ; 0000 0121     lcd_putchar((y/10)%10+'0');
0003e0 940e 09a9 	CALL SUBOPT_0x17
0003e2 940e 092b 	CALL SUBOPT_0x3
                 ; 0000 0122     lcd_putchar((y/1)%10+'0');
0003e4 940e 09a9 	CALL SUBOPT_0x17
0003e6 940e 09eb 	CALL SUBOPT_0x22
                 ; 0000 0123     }
0003e8 9508      	RET
                 ; .FEND
                 ;
                 ;
                 ;void main(void)
                 ; 0000 0127 {
                 _main:
                 ; .FSTART _main
                 ; 0000 0128 // Declare your local variables here
                 ; 0000 0129 
                 ; 0000 012A // Input/Output Ports initialization
                 ; 0000 012B // Port A initialization
                 ; 0000 012C // Function: Bit7=In Bit6=In Bit5=In Bit4=In Bit3=In Bit2=In Bit1=In Bit0=In
                 ; 0000 012D DDRA=(0<<DDA7) | (0<<DDA6) | (0<<DDA5) | (0<<DDA4) | (0<<DDA3) | (0<<DDA2) | (0<<DDA1) | (0<<DDA0);
0003e9 e0e0      	LDI  R30,LOW(0)
0003ea bbea      	OUT  0x1A,R30
                 ; 0000 012E // State: Bit7=T Bit6=T Bit5=T Bit4=T Bit3=T Bit2=T Bit1=T Bit0=T
                 ; 0000 012F PORTA=(0<<PORTA7) | (0<<PORTA6) | (0<<PORTA5) | (0<<PORTA4) | (0<<PORTA3) | (0<<PORTA2) | (0<<PORTA1) | (0<<PORTA0);
0003eb bbeb      	OUT  0x1B,R30
                 ; 0000 0130 
                 ; 0000 0131 // Port B initialization
                 ; 0000 0132 // Function: Bit7=Out Bit6=Out Bit5=Out Bit4=Out Bit3=Out Bit2=In Bit1=In Bit0=In
                 ; 0000 0133 DDRB=(1<<DDB7) | (1<<DDB6) | (1<<DDB5) | (1<<DDB4) | (1<<DDB3) | (0<<DDB2) | (0<<DDB1) | (0<<DDB0);
0003ec efe8      	LDI  R30,LOW(248)
0003ed bbe7      	OUT  0x17,R30
                 ; 0000 0134 // State: Bit7=0 Bit6=0 Bit5=0 Bit4=0 Bit3=0 Bit2=T Bit1=T Bit0=T
                 ; 0000 0135 PORTB=(0<<PORTB7) | (0<<PORTB6) | (0<<PORTB5) | (0<<PORTB4) | (0<<PORTB3) | (0<<PORTB2) | (0<<PORTB1) | (0<<PORTB0);
0003ee e0e0      	LDI  R30,LOW(0)
0003ef bbe8      	OUT  0x18,R30
                 ; 0000 0136 
                 ; 0000 0137 // Port C initialization
                 ; 0000 0138 // Function: Bit7=In Bit6=In Bit5=In Bit4=In Bit3=In Bit2=In Bit1=In Bit0=In
                 ; 0000 0139 DDRC=(0<<DDC7) | (0<<DDC6) | (0<<DDC5) | (0<<DDC4) | (0<<DDC3) | (0<<DDC2) | (0<<DDC1) | (0<<DDC0);
0003f0 bbe4      	OUT  0x14,R30
                 ; 0000 013A // State: Bit7=T Bit6=T Bit5=T Bit4=T Bit3=T Bit2=T Bit1=T Bit0=T
                 ; 0000 013B PORTC=(0<<PORTC7) | (0<<PORTC6) | (0<<PORTC5) | (0<<PORTC4) | (0<<PORTC3) | (0<<PORTC2) | (0<<PORTC1) | (0<<PORTC0);
0003f1 bbe5      	OUT  0x15,R30
                 ; 0000 013C 
                 ; 0000 013D // Port D initialization
                 ; 0000 013E // Function: Bit7=Out Bit6=Out Bit5=Out Bit4=Out Bit3=Out Bit2=Out Bit1=Out Bit0=Out
                 ; 0000 013F DDRD=(1<<DDD7) | (0<<DDD6) | (1<<DDD5) | (1<<DDD4) | (1<<DDD3) | (1<<DDD2) | (1<<DDD1) | (1<<DDD0);
0003f2 ebef      	LDI  R30,LOW(191)
0003f3 bbe1      	OUT  0x11,R30
                 ; 0000 0140 // State: Bit7=0 Bit6=0 Bit5=0 Bit4=0 Bit3=0 Bit2=0 Bit1=0 Bit0=0
                 ; 0000 0141 PORTD=(0<<PORTD7) | (0<<PORTD6) | (0<<PORTD5) | (0<<PORTD4) | (0<<PORTD3) | (0<<PORTD2) | (0<<PORTD1) | (0<<PORTD0);
0003f4 e0e0      	LDI  R30,LOW(0)
0003f5 bbe2      	OUT  0x12,R30
                 ; 0000 0142 
                 ; 0000 0143 // Timer/Counter 0 initialization
                 ; 0000 0144 // Clock source: System Clock
                 ; 0000 0145 // Clock value: 125.000 kHz
                 ; 0000 0146 // Mode: Fast PWM top=0xFF
                 ; 0000 0147 // OC0 output: Non-Inverted PWM
                 ; 0000 0148 // Timer Period: 2.048 ms
                 ; 0000 0149 // Output Pulse(s):
                 ; 0000 014A // OC0 Period: 2.048 ms Width: 0 us
                 ; 0000 014B TCCR0=(1<<WGM00) | (1<<COM01) | (0<<COM00) | (1<<WGM01) | (0<<CS02) | (1<<CS01) | (1<<CS00);
0003f6 e6eb      	LDI  R30,LOW(107)
0003f7 bfe3      	OUT  0x33,R30
                 ; 0000 014C TCNT0=0x00;
0003f8 e0e0      	LDI  R30,LOW(0)
0003f9 bfe2      	OUT  0x32,R30
                 ; 0000 014D OCR0=0x00;
0003fa bfec      	OUT  0x3C,R30
                 ; 0000 014E 
                 ; 0000 014F // Timer/Counter 1 initialization
                 ; 0000 0150 // Clock source: System Clock
                 ; 0000 0151 // Clock value: 125.000 kHz
                 ; 0000 0152 // Mode: Fast PWM top=0x00FF
                 ; 0000 0153 // OC1A output: Non-Inverted PWM
                 ; 0000 0154 // OC1B output: Non-Inverted PWM
                 ; 0000 0155 // Noise Canceler: Off
                 ; 0000 0156 // Input Capture on Falling Edge
                 ; 0000 0157 // Timer Period: 2.048 ms
                 ; 0000 0158 // Output Pulse(s):
                 ; 0000 0159 // OC1A Period: 2.048 ms Width: 0 us// OC1B Period: 2.048 ms Width: 0 us
                 ; 0000 015A // Timer1 Overflow Interrupt: Off
                 ; 0000 015B // Input Capture Interrupt: Off
                 ; 0000 015C // Compare A Match Interrupt: Off
                 ; 0000 015D // Compare B Match Interrupt: Off
                 ; 0000 015E TCCR1A=(1<<COM1A1) | (0<<COM1A0) | (1<<COM1B1) | (0<<COM1B0) | (0<<WGM11) | (1<<WGM10);
0003fb eae1      	LDI  R30,LOW(161)
0003fc bdef      	OUT  0x2F,R30
                 ; 0000 015F TCCR1B=(0<<ICNC1) | (0<<ICES1) | (0<<WGM13) | (1<<WGM12) | (0<<CS12) | (1<<CS11) | (1<<CS10);
0003fd e0eb      	LDI  R30,LOW(11)
0003fe bdee      	OUT  0x2E,R30
                 ; 0000 0160 TCNT1H=0x00;
0003ff e0e0      	LDI  R30,LOW(0)
000400 bded      	OUT  0x2D,R30
                 ; 0000 0161 TCNT1L=0x00;
000401 bdec      	OUT  0x2C,R30
                 ; 0000 0162 ICR1H=0x00;
000402 bde7      	OUT  0x27,R30
                 ; 0000 0163 ICR1L=0x00;
000403 bde6      	OUT  0x26,R30
                 ; 0000 0164 OCR1AH=0x00;
000404 bdeb      	OUT  0x2B,R30
                 ; 0000 0165 OCR1AL=0x00;
000405 bdea      	OUT  0x2A,R30
                 ; 0000 0166 OCR1BH=0x00;
000406 bde9      	OUT  0x29,R30
                 ; 0000 0167 OCR1BL=0x00;
000407 bde8      	OUT  0x28,R30
                 ; 0000 0168 
                 ; 0000 0169 // Timer/Counter 2 initialization
                 ; 0000 016A // Clock source: System Clock
                 ; 0000 016B // Clock value: 125.000 kHz
                 ; 0000 016C // Mode: Fast PWM top=0xFF
                 ; 0000 016D // OC2 output: Non-Inverted PWM
                 ; 0000 016E // Timer Period: 2.048 ms
                 ; 0000 016F // Output Pulse(s):
                 ; 0000 0170 // OC2 Period: 2.048 ms Width: 0 us
                 ; 0000 0171 ASSR=0<<AS2;
000408 bde2      	OUT  0x22,R30
                 ; 0000 0172 TCCR2=(1<<PWM2) | (1<<COM21) | (0<<COM20) | (1<<CTC2) | (1<<CS22) | (0<<CS21) | (0<<CS20);
000409 e6ec      	LDI  R30,LOW(108)
00040a bde5      	OUT  0x25,R30
                 ; 0000 0173 TCNT2=0x00;
00040b e0e0      	LDI  R30,LOW(0)
00040c bde4      	OUT  0x24,R30
                 ; 0000 0174 OCR2=0x00;
00040d bde3      	OUT  0x23,R30
                 ; 0000 0175 
                 ; 0000 0176 // Timer(s)/Counter(s) Interrupt(s) initialization
                 ; 0000 0177 TIMSK=(0<<OCIE2) | (0<<TOIE2) | (0<<TICIE1) | (0<<OCIE1A) | (0<<OCIE1B) | (0<<TOIE1) | (0<<OCIE0) | (0<<TOIE0);
00040e bfe9      	OUT  0x39,R30
                 ; 0000 0178 
                 ; 0000 0179 // External Interrupt(s) initialization
                 ; 0000 017A // INT0: Off
                 ; 0000 017B // INT1: Off
                 ; 0000 017C // INT2: Off
                 ; 0000 017D MCUCR=(0<<ISC11) | (0<<ISC10) | (0<<ISC01) | (0<<ISC00);
00040f bfe5      	OUT  0x35,R30
                 ; 0000 017E MCUCSR=(0<<ISC2);
000410 bfe4      	OUT  0x34,R30
                 ; 0000 017F 
                 ; 0000 0180 // USART initialization
                 ; 0000 0181 // USART disabled
                 ; 0000 0182 UCSRB=(0<<RXCIE) | (0<<TXCIE) | (0<<UDRIE) | (0<<RXEN) | (0<<TXEN) | (0<<UCSZ2) | (0<<RXB8) | (0<<TXB8);
000411 b9ea      	OUT  0xA,R30
                 ; 0000 0183 
                 ; 0000 0184 // Analog Comparator initialization
                 ; 0000 0185 // Analog Comparator: Off
                 ; 0000 0186 // The Analog Comparator's positive input is
                 ; 0000 0187 // connected to the AIN0 pin
                 ; 0000 0188 // The Analog Comparator's negative input is
                 ; 0000 0189 // connected to the AIN1 pin
                 ; 0000 018A ACSR=(1<<ACD) | (0<<ACBG) | (0<<ACO) | (0<<ACI) | (0<<ACIE) | (0<<ACIC) | (0<<ACIS1) | (0<<ACIS0);
000412 e8e0      	LDI  R30,LOW(128)
000413 b9e8      	OUT  0x8,R30
                 ; 0000 018B 
                 ; 0000 018C // ADC initialization
                 ; 0000 018D // ADC Clock frequency: 62.500 kHz
                 ; 0000 018E // ADC Voltage Reference: AVCC pin
                 ; 0000 018F // ADC Auto Trigger Source: ADC Stopped
                 ; 0000 0190 ADMUX=ADC_VREF_TYPE;
000414 e4e0      	LDI  R30,LOW(64)
000415 b9e7      	OUT  0x7,R30
                 ; 0000 0191 ADCSRA=(1<<ADEN) | (0<<ADSC) | (0<<ADATE) | (0<<ADIF) | (0<<ADIE) | (1<<ADPS2) | (1<<ADPS1) | (1<<ADPS0);
000416 e8e7      	LDI  R30,LOW(135)
000417 b9e6      	OUT  0x6,R30
                 ; 0000 0192 SFIOR=(0<<ADTS2) | (0<<ADTS1) | (0<<ADTS0);
000418 e0e0      	LDI  R30,LOW(0)
000419 bfe0      	OUT  0x30,R30
                 ; 0000 0193 
                 ; 0000 0194 // SPI initialization
                 ; 0000 0195 // SPI disabled
                 ; 0000 0196 SPCR=(0<<SPIE) | (0<<SPE) | (0<<DORD) | (0<<MSTR) | (0<<CPOL) | (0<<CPHA) | (0<<SPR1) | (0<<SPR0);
00041a b9ed      	OUT  0xD,R30
                 ; 0000 0197 
                 ; 0000 0198 // TWI initialization
                 ; 0000 0199 // TWI disabled
                 ; 0000 019A TWCR=(0<<TWEA) | (0<<TWSTA) | (0<<TWSTO) | (0<<TWEN) | (0<<TWIE);
00041b bfe6      	OUT  0x36,R30
                 ; 0000 019B 
                 ; 0000 019C // Bit-Banged I2C Bus initialization
                 ; 0000 019D // I2C Port: PORTB
                 ; 0000 019E // I2C SDA bit: 1
                 ; 0000 019F // I2C SCL bit: 0
                 ; 0000 01A0 // Bit Rate: 100 kHz
                 ; 0000 01A1 // Note: I2C settings are specified in the
                 ; 0000 01A2 // Project|Configure|C Compiler|Libraries|I2C menu.
                 ; 0000 01A3 i2c_init();
00041c 940e 0a78 	CALL _i2c_init
                 ; 0000 01A4 
                 ; 0000 01A5 // Alphanumeric LCD initialization
                 ; 0000 01A6 // Connections are specified in the
                 ; 0000 01A7 // Project|Configure|C Compiler|Libraries|Alphanumeric LCD menu:
                 ; 0000 01A8 // RS - PORTC Bit 0
                 ; 0000 01A9 // RD - PORTC Bit 1
                 ; 0000 01AA // EN - PORTC Bit 2
                 ; 0000 01AB // D4 - PORTC Bit 4
                 ; 0000 01AC // D5 - PORTC Bit 5
                 ; 0000 01AD // D6 - PORTC Bit 6
                 ; 0000 01AE // D7 - PORTC Bit 7
                 ; 0000 01AF // Characters/line: 16
                 ; 0000 01B0 lcd_init(16);
00041e e1a0      	LDI  R26,LOW(16)
00041f 940e 08e1 	CALL _lcd_init
                 ; 0000 01B1 
                 ; 0000 01B2 speed = 255;
000421 efef      	LDI  R30,LOW(255)
000422 e0f0      	LDI  R31,HIGH(255)
000423 012f      	MOVW R4,R30
                 ; 0000 01B3 delay_ms(2000);
000424 eda0      	LDI  R26,LOW(2000)
000425 e0b7      	LDI  R27,HIGH(2000)
000426 940e 0ac9 	CALL _delay_ms
                 ; 0000 01B4 c = compass_read(1);
000428 e0a1      	LDI  R26,LOW(1)
000429 dc6f      	RCALL _compass_read
00042a 2eae      	MOV  R10,R30
00042b 24bb      	CLR  R11
                 ; 0000 01B5 while (1)
                 _0x51:
                 ; 0000 01B6     {
                 ; 0000 01B7     readcmp();
00042c dc7d      	RCALL _readcmp
                 ; 0000 01B8     read_pixy();
00042d de50      	RCALL _read_pixy
                 ; 0000 01B9     if(is_ball)
00042e 91e0 0178 	LDS  R30,_is_ball
000430 30e0      	CPI  R30,0
000431 f409      	BRNE PC+2
000432 c064      	RJMP _0x54
                 ; 0000 01BA         {
                 ; 0000 01BB         if(ball_distance < 70)
000433 940e 09ee 	CALL SUBOPT_0x23
000435 34a6      	CPI  R26,LOW(0x46)
000436 e0e0      	LDI  R30,HIGH(0x46)
000437 07be      	CPC  R27,R30
000438 f00c      	BRLT PC+2
000439 c059      	RJMP _0x55
                 ; 0000 01BC             {
                 ; 0000 01BD             if(ball == 0)       move(ball);
00043a 91e0 0174 	LDS  R30,_ball
00043c 91f0 0175 	LDS  R31,_ball+1
00043e 9730      	SBIW R30,0
00043f f419      	BRNE _0x56
000440 940e 09e6 	CALL SUBOPT_0x21
000442 c04e      	RJMP _0x78
                 ; 0000 01BE             else if(ball == 1)  move(ball);
                 _0x56:
000443 940e 09e6 	CALL SUBOPT_0x21
000445 9711      	SBIW R26,1
000446 f419      	BRNE _0x58
000447 940e 09e6 	CALL SUBOPT_0x21
000449 c047      	RJMP _0x78
                 ; 0000 01BF             else if(ball == 15) move(ball);
                 _0x58:
00044a 940e 09e6 	CALL SUBOPT_0x21
00044c 971f      	SBIW R26,15
00044d f419      	BRNE _0x5A
00044e 940e 09e6 	CALL SUBOPT_0x21
000450 c040      	RJMP _0x78
                 ; 0000 01C0             else if(ball == 2)  move(3);
                 _0x5A:
000451 940e 09e6 	CALL SUBOPT_0x21
000453 9712      	SBIW R26,2
000454 f419      	BRNE _0x5C
000455 e0a3      	LDI  R26,LOW(3)
000456 e0b0      	LDI  R27,0
000457 c039      	RJMP _0x78
                 ; 0000 01C1             else if(ball == 14) move(13);
                 _0x5C:
000458 940e 09e6 	CALL SUBOPT_0x21
00045a 971e      	SBIW R26,14
00045b f419      	BRNE _0x5E
00045c e0ad      	LDI  R26,LOW(13)
00045d e0b0      	LDI  R27,0
00045e c032      	RJMP _0x78
                 ; 0000 01C2 
                 ; 0000 01C3             else if(ball>2 && ball<=6)    move(ball + 2);
                 _0x5E:
00045f 940e 09e6 	CALL SUBOPT_0x21
000461 9713      	SBIW R26,3
000462 f024      	BRLT _0x61
000463 940e 09e6 	CALL SUBOPT_0x21
000465 9717      	SBIW R26,7
000466 f00c      	BRLT _0x62
                 _0x61:
000467 c004      	RJMP _0x60
                 _0x62:
000468 940e 09e6 	CALL SUBOPT_0x21
00046a 9612      	ADIW R26,2
00046b c025      	RJMP _0x78
                 ; 0000 01C4             else if(ball>=10 && ball<14)  move(ball - 2);
                 _0x60:
00046c 940e 09e6 	CALL SUBOPT_0x21
00046e 971a      	SBIW R26,10
00046f f024      	BRLT _0x65
000470 940e 09e6 	CALL SUBOPT_0x21
000472 971e      	SBIW R26,14
000473 f00c      	BRLT _0x66
                 _0x65:
000474 c001      	RJMP _0x64
                 _0x66:
000475 c016      	RJMP _0x79
                 ; 0000 01C5 
                 ; 0000 01C6             else if(ball>6 && ball<=8)    move(ball + 2);
                 _0x64:
000476 940e 09e6 	CALL SUBOPT_0x21
000478 9717      	SBIW R26,7
000479 f024      	BRLT _0x69
00047a 940e 09e6 	CALL SUBOPT_0x21
00047c 9719      	SBIW R26,9
00047d f00c      	BRLT _0x6A
                 _0x69:
00047e c004      	RJMP _0x68
                 _0x6A:
00047f 940e 09e6 	CALL SUBOPT_0x21
000481 9612      	ADIW R26,2
000482 c00e      	RJMP _0x78
                 ; 0000 01C7             else if(ball>8 && ball<10)    move(ball - 2);
                 _0x68:
000483 940e 09e6 	CALL SUBOPT_0x21
000485 9719      	SBIW R26,9
000486 f024      	BRLT _0x6D
000487 940e 09e6 	CALL SUBOPT_0x21
000489 971a      	SBIW R26,10
00048a f00c      	BRLT _0x6E
                 _0x6D:
00048b c006      	RJMP _0x6C
                 _0x6E:
                 _0x79:
00048c 91a0 0174 	LDS  R26,_ball
00048e 91b0 0175 	LDS  R27,_ball+1
000490 9712      	SBIW R26,2
                 _0x78:
000491 dd15      	RCALL _move
                 ; 0000 01C8             }
                 _0x6C:
                 ; 0000 01C9         else
000492 c003      	RJMP _0x6F
                 _0x55:
                 ; 0000 01CA             {
                 ; 0000 01CB             move(ball);
000493 940e 09e6 	CALL SUBOPT_0x21
000495 dd11      	RCALL _move
                 ; 0000 01CC //            if(ball == 0)       move(ball);
                 ; 0000 01CD //            else if(ball == 1)  move(ball);
                 ; 0000 01CE //            else if(ball == 15) move(ball);
                 ; 0000 01CF //            else if(ball == 2)  move(ball);
                 ; 0000 01D0 //            else if(ball == 14) move(ball);
                 ; 0000 01D1 //
                 ; 0000 01D2 //
                 ; 0000 01D3 //            else if(ball>2 && ball<=6)    move(ball + 1);
                 ; 0000 01D4 //            else if(ball>=10 && ball<14)  move(ball - 1);
                 ; 0000 01D5 //
                 ; 0000 01D6 //            else if(ball>6 && ball<=8)    move(ball + 2);
                 ; 0000 01D7 //            else if(ball>8 && ball<10)    move(ball - 2);
                 ; 0000 01D8             }
                 _0x6F:
                 ; 0000 01D9         }
                 ; 0000 01DA     else motor(0,0,0,0);
000496 c008      	RJMP _0x70
                 _0x54:
000497 e0e0      	LDI  R30,LOW(0)
000498 e0f0      	LDI  R31,HIGH(0)
000499 940e 097b 	CALL SUBOPT_0xF
00049b 940e 097b 	CALL SUBOPT_0xF
00049d 940e 0962 	CALL SUBOPT_0xB
                 ; 0000 01DB     }
                 _0x70:
00049f cf8c      	RJMP _0x51
                 ; 0000 01DC }
                 _0x71:
0004a0 cfff      	RJMP _0x71
                 ; .FEND
                 
                 	.CSEG
                 _ftrunc:
                 ; .FSTART _ftrunc
0004a1 940e 0d3b 	CALL __PUTPARD2
0004a3 817b         ldd  r23,y+3
0004a4 816a         ldd  r22,y+2
0004a5 81f9         ldd  r31,y+1
0004a6 81e8         ld   r30,y
0004a7 fb77         bst  r23,7
0004a8 0f77         lsl  r23
0004a9 fd67         sbrc r22,7
0004aa 6071         sbr  r23,1
0004ab 2f97         mov  r25,r23
0004ac 579e         subi r25,0x7e
0004ad f081         breq __ftrunc0
0004ae f078         brcs __ftrunc0
0004af 3198         cpi  r25,24
0004b0 f490         brsh __ftrunc1
0004b1 27aa         clr  r26
0004b2 27bb         clr  r27
0004b3 2788         clr  r24
                 __ftrunc2:
0004b4 9408         sec
0004b5 9587         ror  r24
0004b6 95b7         ror  r27
0004b7 95a7         ror  r26
0004b8 959a         dec  r25
0004b9 f7d1         brne __ftrunc2
0004ba 23ea         and  r30,r26
0004bb 23fb         and  r31,r27
0004bc 2368         and  r22,r24
0004bd c005         rjmp __ftrunc1
                 __ftrunc0:
0004be 94e8         clt
0004bf 2777         clr  r23
0004c0 27ee         clr  r30
0004c1 27ff         clr  r31
0004c2 2766         clr  r22
                 __ftrunc1:
0004c3 776f         cbr  r22,0x80
0004c4 9576         lsr  r23
0004c5 f408         brcc __ftrunc3
0004c6 6860         sbr  r22,0x80
                 __ftrunc3:
0004c7 f977         bld  r23,7
0004c8 91a9         ld   r26,y+
0004c9 91b9         ld   r27,y+
0004ca 9189         ld   r24,y+
0004cb 9199         ld   r25,y+
0004cc 17ea         cp   r30,r26
0004cd 07fb         cpc  r31,r27
0004ce 0768         cpc  r22,r24
0004cf 0779         cpc  r23,r25
0004d0 fb97         bst  r25,7
0004d1 9508         ret
                 ; .FEND
                 _floor:
                 ; .FSTART _floor
0004d2 940e 09f3 	CALL SUBOPT_0x24
0004d4 940e 04a1 	CALL _ftrunc
0004d6 940e 09f8 	CALL SUBOPT_0x25
0004d8 f419          brne __floor1
                 __floor0:
0004d9 940e 09fb 	CALL SUBOPT_0x26
0004db c1d3      	RJMP _0x20C0003
                 __floor1:
0004dc f7e6          brtc __floor0
0004dd 940e 09fe 	CALL SUBOPT_0x27
0004df 940e 0b8f 	CALL __SUBF12
0004e1 c1cd      	RJMP _0x20C0003
                 ; .FEND
                 _log:
                 ; .FSTART _log
0004e2 940e 0d3b 	CALL __PUTPARD2
0004e4 9724      	SBIW R28,4
0004e5 931a      	ST   -Y,R17
0004e6 930a      	ST   -Y,R16
0004e7 940e 0a04 	CALL SUBOPT_0x28
0004e9 940e 0d55 	CALL __CPD02
0004eb f02c      	BRLT _0x200000C
                +
0004ec efef     +LDI R30 , LOW ( 0xFF7FFFFF )
0004ed efff     +LDI R31 , HIGH ( 0xFF7FFFFF )
0004ee e76f     +LDI R22 , BYTE3 ( 0xFF7FFFFF )
0004ef ef7f     +LDI R23 , BYTE4 ( 0xFF7FFFFF )
                 	__GETD1N 0xFF7FFFFF
0004f0 c06f      	RJMP _0x20C0006
                 _0x200000C:
0004f1 940e 0a09 	CALL SUBOPT_0x29
0004f3 940e 0d36 	CALL __PUTPARD1
0004f5 b7ad      	IN   R26,SPL
0004f6 b7be      	IN   R27,SPH
0004f7 9711      	SBIW R26,1
0004f8 931f      	PUSH R17
0004f9 930f      	PUSH R16
0004fa 940e 0ad3 	CALL _frexp
0004fc 910f      	POP  R16
0004fd 911f      	POP  R17
0004fe 940e 0a0e 	CALL SUBOPT_0x2A
000500 940e 0a04 	CALL SUBOPT_0x28
                +
000502 efe3     +LDI R30 , LOW ( 0x3F3504F3 )
000503 e0f4     +LDI R31 , HIGH ( 0x3F3504F3 )
000504 e365     +LDI R22 , BYTE3 ( 0x3F3504F3 )
000505 e37f     +LDI R23 , BYTE4 ( 0x3F3504F3 )
                 	__GETD1N 0x3F3504F3
000506 940e 0c79 	CALL __CMPF12
000508 f440      	BRSH _0x200000D
000509 940e 0a13 	CALL SUBOPT_0x2B
00050b 940e 0b96 	CALL __ADDF12
00050d 940e 0a0e 	CALL SUBOPT_0x2A
                +
00050f 5001     +SUBI R16 , LOW ( 1 )
000510 4010     +SBCI R17 , HIGH ( 1 )
                 	__SUBWRN 16,17,1
                 _0x200000D:
000511 940e 0a15 	CALL SUBOPT_0x2C
000513 940e 0b8f 	CALL __SUBF12
000515 937f      	PUSH R23
000516 936f      	PUSH R22
000517 93ff      	PUSH R31
000518 93ef      	PUSH R30
000519 940e 0a15 	CALL SUBOPT_0x2C
00051b 940e 0b96 	CALL __ADDF12
00051d 91af      	POP  R26
00051e 91bf      	POP  R27
00051f 918f      	POP  R24
000520 919f      	POP  R25
000521 940e 0c34 	CALL __DIVF21
000523 940e 0a0e 	CALL SUBOPT_0x2A
000525 940e 0a13 	CALL SUBOPT_0x2B
000527 940e 0a1b 	CALL SUBOPT_0x2D
                +
000529 e2a6     +LDI R26 , LOW ( 0x3F654226 )
00052a e4b2     +LDI R27 , HIGH ( 0x3F654226 )
00052b e685     +LDI R24 , BYTE3 ( 0x3F654226 )
00052c e39f     +LDI R25 , BYTE4 ( 0x3F654226 )
                 	__GETD2N 0x3F654226
00052d 940e 09be 	CALL SUBOPT_0x1A
                +
00052f e4ee     +LDI R30 , LOW ( 0x4054114E )
000530 e1f1     +LDI R31 , HIGH ( 0x4054114E )
000531 e564     +LDI R22 , BYTE3 ( 0x4054114E )
000532 e470     +LDI R23 , BYTE4 ( 0x4054114E )
                 	__GETD1N 0x4054114E
000533 940e 0a22 	CALL SUBOPT_0x2E
000535 940e 0a04 	CALL SUBOPT_0x28
000537 940e 0be6 	CALL __MULF12
000539 937f      	PUSH R23
00053a 936f      	PUSH R22
00053b 93ff      	PUSH R31
00053c 93ef      	PUSH R30
00053d 940e 0a27 	CALL SUBOPT_0x2F
                +
00053f e4ad     +LDI R26 , LOW ( 0x3FD4114D )
000540 e1b1     +LDI R27 , HIGH ( 0x3FD4114D )
000541 ed84     +LDI R24 , BYTE3 ( 0x3FD4114D )
000542 e39f     +LDI R25 , BYTE4 ( 0x3FD4114D )
                 	__GETD2N 0x3FD4114D
000543 940e 0b8f 	CALL __SUBF12
000545 91af      	POP  R26
000546 91bf      	POP  R27
000547 918f      	POP  R24
000548 919f      	POP  R25
000549 940e 0c34 	CALL __DIVF21
00054b 937f      	PUSH R23
00054c 936f      	PUSH R22
00054d 93ff      	PUSH R31
00054e 93ef      	PUSH R30
00054f 01f8      	MOVW R30,R16
000550 940e 0cdc 	CALL __CWD1
000552 940e 0b5c 	CALL __CDF1
                +
000554 e1a8     +LDI R26 , LOW ( 0x3F317218 )
000555 e7b2     +LDI R27 , HIGH ( 0x3F317218 )
000556 e381     +LDI R24 , BYTE3 ( 0x3F317218 )
000557 e39f     +LDI R25 , BYTE4 ( 0x3F317218 )
                 	__GETD2N 0x3F317218
000558 940e 0be6 	CALL __MULF12
00055a 91af      	POP  R26
00055b 91bf      	POP  R27
00055c 918f      	POP  R24
00055d 919f      	POP  R25
00055e 940e 0b96 	CALL __ADDF12
                 _0x20C0006:
000560 8119      	LDD  R17,Y+1
000561 8108      	LDD  R16,Y+0
000562 962a      	ADIW R28,10
000563 9508      	RET
                 ; .FEND
                 _exp:
                 ; .FSTART _exp
000564 940e 0d3b 	CALL __PUTPARD2
000566 9728      	SBIW R28,8
000567 931a      	ST   -Y,R17
000568 930a      	ST   -Y,R16
000569 940e 0a2c 	CALL SUBOPT_0x30
                +
00056b e5e0     +LDI R30 , LOW ( 0xC2AEAC50 )
00056c eafc     +LDI R31 , HIGH ( 0xC2AEAC50 )
00056d ea6e     +LDI R22 , BYTE3 ( 0xC2AEAC50 )
00056e ec72     +LDI R23 , BYTE4 ( 0xC2AEAC50 )
                 	__GETD1N 0xC2AEAC50
00056f 940e 0c79 	CALL __CMPF12
000571 f418      	BRSH _0x200000F
000572 940e 0a31 	CALL SUBOPT_0x31
000574 c085      	RJMP _0x20C0005
                 _0x200000F:
                +
000575 85ea     +LDD R30 , Y + 10
000576 85fb     +LDD R31 , Y + 10 + 1
000577 856c     +LDD R22 , Y + 10 + 2
000578 857d     +LDD R23 , Y + 10 + 3
                 	__GETD1S 10
000579 940e 0d4d 	CALL __CPD10
00057b f429      	BRNE _0x2000010
                +
00057c e0e0     +LDI R30 , LOW ( 0x3F800000 )
00057d e0f0     +LDI R31 , HIGH ( 0x3F800000 )
00057e e860     +LDI R22 , BYTE3 ( 0x3F800000 )
00057f e37f     +LDI R23 , BYTE4 ( 0x3F800000 )
                 	__GETD1N 0x3F800000
000580 c079      	RJMP _0x20C0005
                 _0x2000010:
000581 940e 0a2c 	CALL SUBOPT_0x30
                +
000583 e1e8     +LDI R30 , LOW ( 0x42B17218 )
000584 e7f2     +LDI R31 , HIGH ( 0x42B17218 )
000585 eb61     +LDI R22 , BYTE3 ( 0x42B17218 )
000586 e472     +LDI R23 , BYTE4 ( 0x42B17218 )
                 	__GETD1N 0x42B17218
000587 940e 0c79 	CALL __CMPF12
000589 f009      	BREQ PC+2
00058a f408      	BRCC PC+2
00058b c005      	RJMP _0x2000011
                +
00058c efef     +LDI R30 , LOW ( 0x7F7FFFFF )
00058d efff     +LDI R31 , HIGH ( 0x7F7FFFFF )
00058e e76f     +LDI R22 , BYTE3 ( 0x7F7FFFFF )
00058f e77f     +LDI R23 , BYTE4 ( 0x7F7FFFFF )
                 	__GETD1N 0x7F7FFFFF
000590 c069      	RJMP _0x20C0005
                 _0x2000011:
000591 940e 0a2c 	CALL SUBOPT_0x30
                +
000593 e3eb     +LDI R30 , LOW ( 0x3FB8AA3B )
000594 eafa     +LDI R31 , HIGH ( 0x3FB8AA3B )
000595 eb68     +LDI R22 , BYTE3 ( 0x3FB8AA3B )
000596 e37f     +LDI R23 , BYTE4 ( 0x3FB8AA3B )
                 	__GETD1N 0x3FB8AA3B
000597 940e 0be6 	CALL __MULF12
                +
000599 87ea     +STD Y + 10 , R30
00059a 87fb     +STD Y + 10 + 1 , R31
00059b 876c     +STD Y + 10 + 2 , R22
00059c 877d     +STD Y + 10 + 3 , R23
                 	__PUTD1S 10
00059d 940e 0a2c 	CALL SUBOPT_0x30
00059f df32      	RCALL _floor
0005a0 940e 0b25 	CALL __CFD1
0005a2 018f      	MOVW R16,R30
0005a3 940e 0a2c 	CALL SUBOPT_0x30
0005a5 940e 0cdc 	CALL __CWD1
0005a7 940e 0b5c 	CALL __CDF1
0005a9 940e 0a22 	CALL SUBOPT_0x2E
0005ab 01df      	MOVW R26,R30
0005ac 01cb      	MOVW R24,R22
                +
0005ad e0e0     +LDI R30 , LOW ( 0x3F000000 )
0005ae e0f0     +LDI R31 , HIGH ( 0x3F000000 )
0005af e060     +LDI R22 , BYTE3 ( 0x3F000000 )
0005b0 e37f     +LDI R23 , BYTE4 ( 0x3F000000 )
                 	__GETD1N 0x3F000000
0005b1 940e 0a22 	CALL SUBOPT_0x2E
0005b3 940e 0a0e 	CALL SUBOPT_0x2A
0005b5 940e 0a13 	CALL SUBOPT_0x2B
0005b7 940e 0a1b 	CALL SUBOPT_0x2D
                +
0005b9 e6ad     +LDI R26 , LOW ( 0x3D6C4C6D )
0005ba e4bc     +LDI R27 , HIGH ( 0x3D6C4C6D )
0005bb e68c     +LDI R24 , BYTE3 ( 0x3D6C4C6D )
0005bc e39d     +LDI R25 , BYTE4 ( 0x3D6C4C6D )
                 	__GETD2N 0x3D6C4C6D
0005bd 940e 0be6 	CALL __MULF12
                +
0005bf eaa6     +LDI R26 , LOW ( 0x40E6E3A6 )
0005c0 eeb3     +LDI R27 , HIGH ( 0x40E6E3A6 )
0005c1 ee86     +LDI R24 , BYTE3 ( 0x40E6E3A6 )
0005c2 e490     +LDI R25 , BYTE4 ( 0x40E6E3A6 )
                 	__GETD2N 0x40E6E3A6
0005c3 940e 0b96 	CALL __ADDF12
0005c5 940e 0a04 	CALL SUBOPT_0x28
0005c7 940e 0be6 	CALL __MULF12
0005c9 940e 0a0e 	CALL SUBOPT_0x2A
0005cb 940e 0a27 	CALL SUBOPT_0x2F
                +
0005cd e2a8     +LDI R26 , LOW ( 0x41A68D28 )
0005ce e8bd     +LDI R27 , HIGH ( 0x41A68D28 )
0005cf ea86     +LDI R24 , BYTE3 ( 0x41A68D28 )
0005d0 e491     +LDI R25 , BYTE4 ( 0x41A68D28 )
                 	__GETD2N 0x41A68D28
0005d1 940e 0b96 	CALL __ADDF12
                +
0005d3 83ea     +STD Y + 2 , R30
0005d4 83fb     +STD Y + 2 + 1 , R31
0005d5 836c     +STD Y + 2 + 2 , R22
0005d6 837d     +STD Y + 2 + 3 , R23
                 	__PUTD1S 2
0005d7 940e 0a09 	CALL SUBOPT_0x29
                +
0005d9 81aa     +LDD R26 , Y + 2
0005da 81bb     +LDD R27 , Y + 2 + 1
0005db 818c     +LDD R24 , Y + 2 + 2
0005dc 819d     +LDD R25 , Y + 2 + 3
                 	__GETD2S 2
0005dd 940e 0b96 	CALL __ADDF12
                +
0005df efa3     +LDI R26 , LOW ( 0x3FB504F3 )
0005e0 e0b4     +LDI R27 , HIGH ( 0x3FB504F3 )
0005e1 eb85     +LDI R24 , BYTE3 ( 0x3FB504F3 )
0005e2 e39f     +LDI R25 , BYTE4 ( 0x3FB504F3 )
                 	__GETD2N 0x3FB504F3
0005e3 940e 0be6 	CALL __MULF12
0005e5 937f      	PUSH R23
0005e6 936f      	PUSH R22
0005e7 93ff      	PUSH R31
0005e8 93ef      	PUSH R30
0005e9 940e 0a04 	CALL SUBOPT_0x28
0005eb 940e 0a27 	CALL SUBOPT_0x2F
0005ed 940e 0b8f 	CALL __SUBF12
0005ef 91af      	POP  R26
0005f0 91bf      	POP  R27
0005f1 918f      	POP  R24
0005f2 919f      	POP  R25
0005f3 940e 0c34 	CALL __DIVF21
0005f5 940e 0d36 	CALL __PUTPARD1
0005f7 01d8      	MOVW R26,R16
0005f8 940e 0ae4 	CALL _ldexp
                 _0x20C0005:
0005fa 8119      	LDD  R17,Y+1
0005fb 8108      	LDD  R16,Y+0
0005fc 962e      	ADIW R28,14
0005fd 9508      	RET
                 ; .FEND
                 _pow:
                 ; .FSTART _pow
0005fe 940e 0d3b 	CALL __PUTPARD2
000600 9724      	SBIW R28,4
000601 940e 0a36 	CALL SUBOPT_0x32
000603 940e 0d4d 	CALL __CPD10
000605 f419      	BRNE _0x2000012
000606 940e 0a31 	CALL SUBOPT_0x31
000608 c0ff      	RJMP _0x20C0002
                 _0x2000012:
000609 940e 0a3b 	CALL SUBOPT_0x33
00060b 940e 0d55 	CALL __CPD02
00060d f484      	BRGE _0x2000013
00060e 940e 0a40 	CALL SUBOPT_0x34
000610 940e 0d4d 	CALL __CPD10
000612 f429      	BRNE _0x2000014
                +
000613 e0e0     +LDI R30 , LOW ( 0x3F800000 )
000614 e0f0     +LDI R31 , HIGH ( 0x3F800000 )
000615 e860     +LDI R22 , BYTE3 ( 0x3F800000 )
000616 e37f     +LDI R23 , BYTE4 ( 0x3F800000 )
                 	__GETD1N 0x3F800000
000617 c0f0      	RJMP _0x20C0002
                 _0x2000014:
000618 940e 0a3b 	CALL SUBOPT_0x33
00061a 940e 0a45 	CALL SUBOPT_0x35
00061c df47      	RCALL _exp
00061d c0ea      	RJMP _0x20C0002
                 _0x2000013:
00061e 940e 0a40 	CALL SUBOPT_0x34
000620 01de      	MOVW R26,R28
000621 940e 0b25 	CALL __CFD1
000623 940e 0d22 	CALL __PUTDP1
000625 940e 09fb 	CALL SUBOPT_0x26
000627 940e 0b5c 	CALL __CDF1
000629 01df      	MOVW R26,R30
00062a 01cb      	MOVW R24,R22
00062b 940e 0a40 	CALL SUBOPT_0x34
00062d 940e 0d5b 	CALL __CPD12
00062f f019      	BREQ _0x2000015
000630 940e 0a31 	CALL SUBOPT_0x31
000632 c0d5      	RJMP _0x20C0002
                 _0x2000015:
000633 940e 0a36 	CALL SUBOPT_0x32
000635 940e 0a4c 	CALL SUBOPT_0x36
000637 940e 0a45 	CALL SUBOPT_0x35
000639 df2a      	RCALL _exp
                +
00063a 87e8     +STD Y + 8 , R30
00063b 87f9     +STD Y + 8 + 1 , R31
00063c 876a     +STD Y + 8 + 2 , R22
00063d 877b     +STD Y + 8 + 3 , R23
                 	__PUTD1S 8
00063e 81e8      	LD   R30,Y
00063f 70e1      	ANDI R30,LOW(0x1)
000640 f419      	BRNE _0x2000016
000641 940e 0a36 	CALL SUBOPT_0x32
000643 c0c4      	RJMP _0x20C0002
                 _0x2000016:
000644 940e 0a36 	CALL SUBOPT_0x32
000646 940e 0af0 	CALL __ANEGF1
000648 c0bf      	RJMP _0x20C0002
                 ; .FEND
                 _xatan:
                 ; .FSTART _xatan
000649 940e 0d3b 	CALL __PUTPARD2
00064b 9724      	SBIW R28,4
00064c 940e 0a40 	CALL SUBOPT_0x34
00064e 940e 0a51 	CALL SUBOPT_0x37
000650 940e 09f8 	CALL SUBOPT_0x25
000652 940e 09fb 	CALL SUBOPT_0x26
                +
000654 e6a5     +LDI R26 , LOW ( 0x40CBD065 )
000655 edb0     +LDI R27 , HIGH ( 0x40CBD065 )
000656 ec8b     +LDI R24 , BYTE3 ( 0x40CBD065 )
000657 e490     +LDI R25 , BYTE4 ( 0x40CBD065 )
                 	__GETD2N 0x40CBD065
000658 940e 0a58 	CALL SUBOPT_0x38
00065a 940e 0a51 	CALL SUBOPT_0x37
00065c 937f      	PUSH R23
00065d 936f      	PUSH R22
00065e 93ff      	PUSH R31
00065f 93ef      	PUSH R30
000660 940e 09fb 	CALL SUBOPT_0x26
                +
000662 e0a0     +LDI R26 , LOW ( 0x41296D00 )
000663 e6bd     +LDI R27 , HIGH ( 0x41296D00 )
000664 e289     +LDI R24 , BYTE3 ( 0x41296D00 )
000665 e491     +LDI R25 , BYTE4 ( 0x41296D00 )
                 	__GETD2N 0x41296D00
000666 940e 0b96 	CALL __ADDF12
000668 940e 0a61 	CALL SUBOPT_0x39
00066a 940e 0a58 	CALL SUBOPT_0x38
00066c 91af      	POP  R26
00066d 91bf      	POP  R27
00066e 918f      	POP  R24
00066f 919f      	POP  R25
000670 940e 0c34 	CALL __DIVF21
                 _0x20C0004:
000672 9628      	ADIW R28,8
000673 9508      	RET
                 ; .FEND
                 _yatan:
                 ; .FSTART _yatan
000674 940e 09f3 	CALL SUBOPT_0x24
                +
000676 eced     +LDI R30 , LOW ( 0x3ED413CD )
000677 e1f3     +LDI R31 , HIGH ( 0x3ED413CD )
000678 ed64     +LDI R22 , BYTE3 ( 0x3ED413CD )
000679 e37e     +LDI R23 , BYTE4 ( 0x3ED413CD )
                 	__GETD1N 0x3ED413CD
00067a 940e 0c79 	CALL __CMPF12
00067c f420      	BRSH _0x2000020
00067d 940e 0a61 	CALL SUBOPT_0x39
00067f dfc9      	RCALL _xatan
000680 c02e      	RJMP _0x20C0003
                 _0x2000020:
000681 940e 0a61 	CALL SUBOPT_0x39
                +
000683 e7ea     +LDI R30 , LOW ( 0x401A827A )
000684 e8f2     +LDI R31 , HIGH ( 0x401A827A )
000685 e16a     +LDI R22 , BYTE3 ( 0x401A827A )
000686 e470     +LDI R23 , BYTE4 ( 0x401A827A )
                 	__GETD1N 0x401A827A
000687 940e 0c79 	CALL __CMPF12
000689 f009      	BREQ PC+2
00068a f408      	BRCC PC+2
00068b c00b      	RJMP _0x2000021
00068c 940e 09fe 	CALL SUBOPT_0x27
00068e 940e 0a64 	CALL SUBOPT_0x3A
                +
000690 edab     +LDI R26 , LOW ( 0x3FC90FDB )
000691 e0bf     +LDI R27 , HIGH ( 0x3FC90FDB )
000692 ec89     +LDI R24 , BYTE3 ( 0x3FC90FDB )
000693 e39f     +LDI R25 , BYTE4 ( 0x3FC90FDB )
                 	__GETD2N 0x3FC90FDB
000694 940e 0a22 	CALL SUBOPT_0x2E
000696 c018      	RJMP _0x20C0003
                 _0x2000021:
000697 940e 09fe 	CALL SUBOPT_0x27
000699 940e 0b8f 	CALL __SUBF12
00069b 937f      	PUSH R23
00069c 936f      	PUSH R22
00069d 93ff      	PUSH R31
00069e 93ef      	PUSH R30
00069f 940e 09fe 	CALL SUBOPT_0x27
0006a1 940e 0b96 	CALL __ADDF12
0006a3 91af      	POP  R26
0006a4 91bf      	POP  R27
0006a5 918f      	POP  R24
0006a6 919f      	POP  R25
0006a7 940e 0a64 	CALL SUBOPT_0x3A
                +
0006a9 edab     +LDI R26 , LOW ( 0x3F490FDB )
0006aa e0bf     +LDI R27 , HIGH ( 0x3F490FDB )
0006ab e489     +LDI R24 , BYTE3 ( 0x3F490FDB )
0006ac e39f     +LDI R25 , BYTE4 ( 0x3F490FDB )
                 	__GETD2N 0x3F490FDB
0006ad 940e 0b96 	CALL __ADDF12
                 _0x20C0003:
0006af 9624      	ADIW R28,4
0006b0 9508      	RET
                 ; .FEND
                 _atan2:
                 ; .FSTART _atan2
0006b1 940e 0d3b 	CALL __PUTPARD2
0006b3 9724      	SBIW R28,4
0006b4 940e 0a40 	CALL SUBOPT_0x34
0006b6 940e 0d4d 	CALL __CPD10
0006b8 f4c9      	BRNE _0x200002D
0006b9 940e 0a36 	CALL SUBOPT_0x32
0006bb 940e 0d4d 	CALL __CPD10
0006bd f429      	BRNE _0x200002E
                +
0006be efef     +LDI R30 , LOW ( 0x7F7FFFFF )
0006bf efff     +LDI R31 , HIGH ( 0x7F7FFFFF )
0006c0 e76f     +LDI R22 , BYTE3 ( 0x7F7FFFFF )
0006c1 e77f     +LDI R23 , BYTE4 ( 0x7F7FFFFF )
                 	__GETD1N 0x7F7FFFFF
0006c2 c045      	RJMP _0x20C0002
                 _0x200002E:
0006c3 940e 0a3b 	CALL SUBOPT_0x33
0006c5 940e 0d55 	CALL __CPD02
0006c7 f42c      	BRGE _0x200002F
                +
0006c8 edeb     +LDI R30 , LOW ( 0x3FC90FDB )
0006c9 e0ff     +LDI R31 , HIGH ( 0x3FC90FDB )
0006ca ec69     +LDI R22 , BYTE3 ( 0x3FC90FDB )
0006cb e37f     +LDI R23 , BYTE4 ( 0x3FC90FDB )
                 	__GETD1N 0x3FC90FDB
0006cc c03b      	RJMP _0x20C0002
                 _0x200002F:
                +
0006cd edeb     +LDI R30 , LOW ( 0xBFC90FDB )
0006ce e0ff     +LDI R31 , HIGH ( 0xBFC90FDB )
0006cf ec69     +LDI R22 , BYTE3 ( 0xBFC90FDB )
0006d0 eb7f     +LDI R23 , BYTE4 ( 0xBFC90FDB )
                 	__GETD1N 0xBFC90FDB
0006d1 c036      	RJMP _0x20C0002
                 _0x200002D:
0006d2 940e 0a40 	CALL SUBOPT_0x34
0006d4 940e 0a3b 	CALL SUBOPT_0x33
0006d6 940e 0c34 	CALL __DIVF21
0006d8 940e 09f8 	CALL SUBOPT_0x25
                +
0006da 81ac     +LDD R26 , Y + 4
0006db 81bd     +LDD R27 , Y + 4 + 1
0006dc 818e     +LDD R24 , Y + 4 + 2
0006dd 819f     +LDD R25 , Y + 4 + 3
                 	__GETD2S 4
0006de 940e 0d55 	CALL __CPD02
0006e0 f47c      	BRGE _0x2000030
0006e1 85ab      	LDD  R26,Y+11
0006e2 23aa      	TST  R26
0006e3 f022      	BRMI _0x2000031
0006e4 940e 0a61 	CALL SUBOPT_0x39
0006e6 df8d      	RCALL _yatan
0006e7 c020      	RJMP _0x20C0002
                 _0x2000031:
0006e8 940e 09fb 	CALL SUBOPT_0x26
0006ea 940e 0a4c 	CALL SUBOPT_0x36
0006ec df87      	RCALL _yatan
0006ed 940e 0af0 	CALL __ANEGF1
0006ef c018      	RJMP _0x20C0002
                 _0x2000030:
0006f0 85ab      	LDD  R26,Y+11
0006f1 23aa      	TST  R26
0006f2 f062      	BRMI _0x2000032
0006f3 940e 09fb 	CALL SUBOPT_0x26
0006f5 940e 0a4c 	CALL SUBOPT_0x36
0006f7 df7c      	RCALL _yatan
                +
0006f8 edab     +LDI R26 , LOW ( 0x40490FDB )
0006f9 e0bf     +LDI R27 , HIGH ( 0x40490FDB )
0006fa e489     +LDI R24 , BYTE3 ( 0x40490FDB )
0006fb e490     +LDI R25 , BYTE4 ( 0x40490FDB )
                 	__GETD2N 0x40490FDB
0006fc 940e 0a22 	CALL SUBOPT_0x2E
0006fe c009      	RJMP _0x20C0002
                 _0x2000032:
0006ff 940e 0a61 	CALL SUBOPT_0x39
000701 df72      	RCALL _yatan
                +
000702 edab     +LDI R26 , LOW ( 0xC0490FDB )
000703 e0bf     +LDI R27 , HIGH ( 0xC0490FDB )
000704 e489     +LDI R24 , BYTE3 ( 0xC0490FDB )
000705 ec90     +LDI R25 , BYTE4 ( 0xC0490FDB )
                 	__GETD2N 0xC0490FDB
000706 940e 0b96 	CALL __ADDF12
                 _0x20C0002:
000708 962c      	ADIW R28,12
000709 9508      	RET
                 ; .FEND
                 	#ifndef __SLEEP_DEFINED__
                 	#endif
                 
                 	.DSEG
                 
                 	.CSEG
                 _twi_int_handler:
                 ; .FSTART _twi_int_handler
00070a 920a      	ST   -Y,R0
00070b 921a      	ST   -Y,R1
00070c 92fa      	ST   -Y,R15
00070d 936a      	ST   -Y,R22
00070e 937a      	ST   -Y,R23
00070f 938a      	ST   -Y,R24
000710 939a      	ST   -Y,R25
000711 93aa      	ST   -Y,R26
000712 93ba      	ST   -Y,R27
000713 93ea      	ST   -Y,R30
000714 93fa      	ST   -Y,R31
000715 b7ef      	IN   R30,SREG
000716 93ea      	ST   -Y,R30
000717 940e 0d60 	CALL __SAVELOCR6
000719 9110 0161 	LDS  R17,_twi_rx_index
00071b 9100 0160 	LDS  R16,_twi_tx_index
00071d 9130 017e 	LDS  R19,_bytes_to_tx_G101
00071f 9120 0162 	LDS  R18,_twi_result
000721 2fe1      	MOV  R30,R17
000722 91a0 017f 	LDS  R26,_twi_rx_buffer_G101
000724 91b0 0180 	LDS  R27,_twi_rx_buffer_G101+1
000726 e0f0      	LDI  R31,0
000727 0fea      	ADD  R30,R26
000728 1ffb      	ADC  R31,R27
000729 01af      	MOVW R20,R30
00072a b1e1      	IN   R30,0x1
00072b 7fe8      	ANDI R30,LOW(0xF8)
00072c 30e8      	CPI  R30,LOW(0x8)
00072d f411      	BRNE _0x2020017
00072e e020      	LDI  R18,LOW(0)
00072f c002      	RJMP _0x2020018
                 _0x2020017:
000730 31e0      	CPI  R30,LOW(0x10)
000731 f419      	BRNE _0x2020019
                 _0x2020018:
000732 91e0 017b 	LDS  R30,_slave_address_G101
000734 c010      	RJMP _0x2020067
                 _0x2020019:
000735 31e8      	CPI  R30,LOW(0x18)
000736 f011      	BREQ _0x202001D
000737 32e8      	CPI  R30,LOW(0x28)
000738 f521      	BRNE _0x202001E
                 _0x202001D:
000739 1703      	CP   R16,R19
00073a f480      	BRSH _0x202001F
00073b 2fe0      	MOV  R30,R16
00073c 5f0f      	SUBI R16,-1
00073d 91a0 017c 	LDS  R26,_twi_tx_buffer_G101
00073f 91b0 017d 	LDS  R27,_twi_tx_buffer_G101+1
000741 e0f0      	LDI  R31,0
000742 0fae      	ADD  R26,R30
000743 1fbf      	ADC  R27,R31
000744 91ec      	LD   R30,X
                 _0x2020067:
000745 b9e3      	OUT  0x3,R30
000746 b7e6      	IN   R30,0x36
000747 70ef      	ANDI R30,LOW(0xF)
000748 68e0      	ORI  R30,0x80
000749 bfe6      	OUT  0x36,R30
00074a c011      	RJMP _0x2020020
                 _0x202001F:
00074b 91e0 0181 	LDS  R30,_bytes_to_rx_G101
00074d 171e      	CP   R17,R30
00074e f460      	BRSH _0x2020021
00074f 91e0 017b 	LDS  R30,_slave_address_G101
000751 60e1      	ORI  R30,1
000752 93e0 017b 	STS  _slave_address_G101,R30
000754 94e8      	CLT
000755 f820      	BLD  R2,0
000756 b7e6      	IN   R30,0x36
000757 70ef      	ANDI R30,LOW(0xF)
000758 6ae0      	ORI  R30,LOW(0xA0)
000759 bfe6      	OUT  0x36,R30
00075a c0fb      	RJMP _0x2020016
                 _0x2020021:
00075b c033      	RJMP _0x2020022
                 _0x2020020:
00075c c0f9      	RJMP _0x2020016
                 _0x202001E:
00075d 35e0      	CPI  R30,LOW(0x50)
00075e f429      	BRNE _0x2020023
00075f b1e3      	IN   R30,0x3
000760 01da      	MOVW R26,R20
000761 93ec      	ST   X,R30
000762 5f1f      	SUBI R17,-LOW(1)
000763 c002      	RJMP _0x2020024
                 _0x2020023:
000764 34e0      	CPI  R30,LOW(0x40)
000765 f471      	BRNE _0x2020025
                 _0x2020024:
000766 91e0 0181 	LDS  R30,_bytes_to_rx_G101
000768 50e1      	SUBI R30,LOW(1)
000769 171e      	CP   R17,R30
00076a f020      	BRLO _0x2020026
00076b b7e6      	IN   R30,0x36
00076c 70ef      	ANDI R30,LOW(0xF)
00076d 68e0      	ORI  R30,0x80
00076e c003      	RJMP _0x2020068
                 _0x2020026:
00076f b7e6      	IN   R30,0x36
000770 70ef      	ANDI R30,LOW(0xF)
000771 6ce0      	ORI  R30,LOW(0xC0)
                 _0x2020068:
000772 bfe6      	OUT  0x36,R30
000773 c0e2      	RJMP _0x2020016
                 _0x2020025:
000774 35e8      	CPI  R30,LOW(0x58)
000775 f429      	BRNE _0x2020028
000776 b1e3      	IN   R30,0x3
000777 01da      	MOVW R26,R20
000778 93ec      	ST   X,R30
000779 5f1f      	SUBI R17,-LOW(1)
00077a c002      	RJMP _0x2020029
                 _0x2020028:
00077b 32e0      	CPI  R30,LOW(0x20)
00077c f409      	BRNE _0x202002A
                 _0x2020029:
00077d c002      	RJMP _0x202002B
                 _0x202002A:
00077e 33e0      	CPI  R30,LOW(0x30)
00077f f409      	BRNE _0x202002C
                 _0x202002B:
000780 c002      	RJMP _0x202002D
                 _0x202002C:
000781 34e8      	CPI  R30,LOW(0x48)
000782 f469      	BRNE _0x202002E
                 _0x202002D:
000783 3020      	CPI  R18,0
000784 f451      	BRNE _0x202002F
000785 fe20      	SBRS R2,0
000786 c003      	RJMP _0x2020030
000787 1703      	CP   R16,R19
000788 f028      	BRLO _0x2020032
000789 c005      	RJMP _0x2020033
                 _0x2020030:
00078a 91e0 0181 	LDS  R30,_bytes_to_rx_G101
00078c 171e      	CP   R17,R30
00078d f408      	BRSH _0x2020034
                 _0x2020032:
00078e e024      	LDI  R18,LOW(4)
                 _0x2020034:
                 _0x2020033:
                 _0x202002F:
                 _0x2020022:
00078f c0c0      	RJMP _0x2020069
                 _0x202002E:
000790 33e8      	CPI  R30,LOW(0x38)
000791 f429      	BRNE _0x2020037
000792 e022      	LDI  R18,LOW(2)
000793 b7e6      	IN   R30,0x36
000794 70ef      	ANDI R30,LOW(0xF)
000795 68e0      	ORI  R30,0x80
000796 c0bc      	RJMP _0x202006A
                 _0x2020037:
000797 36e8      	CPI  R30,LOW(0x68)
000798 f011      	BREQ _0x202003A
000799 37e8      	CPI  R30,LOW(0x78)
00079a f411      	BRNE _0x202003B
                 _0x202003A:
00079b e022      	LDI  R18,LOW(2)
00079c c005      	RJMP _0x202003C
                 _0x202003B:
00079d 36e0      	CPI  R30,LOW(0x60)
00079e f011      	BREQ _0x202003F
00079f 37e0      	CPI  R30,LOW(0x70)
0007a0 f491      	BRNE _0x2020040
                 _0x202003F:
0007a1 e020      	LDI  R18,LOW(0)
                 _0x202003C:
0007a2 e010      	LDI  R17,LOW(0)
0007a3 94e8      	CLT
0007a4 f820      	BLD  R2,0
0007a5 91e0 0182 	LDS  R30,_twi_rx_buffer_size_G101
0007a7 30e0      	CPI  R30,0
0007a8 f429      	BRNE _0x2020041
0007a9 e021      	LDI  R18,LOW(1)
0007aa b7e6      	IN   R30,0x36
0007ab 70ef      	ANDI R30,LOW(0xF)
0007ac 68e0      	ORI  R30,0x80
0007ad c003      	RJMP _0x202006B
                 _0x2020041:
0007ae b7e6      	IN   R30,0x36
0007af 70ef      	ANDI R30,LOW(0xF)
0007b0 6ce0      	ORI  R30,LOW(0xC0)
                 _0x202006B:
0007b1 bfe6      	OUT  0x36,R30
0007b2 c0a3      	RJMP _0x2020016
                 _0x2020040:
0007b3 38e0      	CPI  R30,LOW(0x80)
0007b4 f011      	BREQ _0x2020044
0007b5 39e0      	CPI  R30,LOW(0x90)
0007b6 f529      	BRNE _0x2020045
                 _0x2020044:
0007b7 fe20      	SBRS R2,0
0007b8 c002      	RJMP _0x2020046
0007b9 e021      	LDI  R18,LOW(1)
0007ba c095      	RJMP _0x2020047
                 _0x2020046:
0007bb b1e3      	IN   R30,0x3
0007bc 01da      	MOVW R26,R20
0007bd 93ec      	ST   X,R30
0007be 5f1f      	SUBI R17,-LOW(1)
0007bf 91e0 0182 	LDS  R30,_twi_rx_buffer_size_G101
0007c1 171e      	CP   R17,R30
0007c2 f4b0      	BRSH _0x2020048
0007c3 91e0 0183 	LDS  R30,_twi_slave_rx_handler_G101
0007c5 91f0 0184 	LDS  R31,_twi_slave_rx_handler_G101+1
0007c7 9730      	SBIW R30,0
0007c8 f411      	BRNE _0x2020049
0007c9 e026      	LDI  R18,LOW(6)
0007ca c085      	RJMP _0x2020047
                 _0x2020049:
0007cb e0a0      	LDI  R26,LOW(0)
                +
0007cc 91e0 0183+LDS R30 , _twi_slave_rx_handler_G101 + ( 0 )
0007ce 91f0 0184+LDS R31 , _twi_slave_rx_handler_G101 + ( 0 ) + 1
0007d0 9509     +ICALL
                 	__CALL1MN _twi_slave_rx_handler_G101,0
0007d1 30e0      	CPI  R30,0
0007d2 f029      	BREQ _0x202004A
0007d3 b7e6      	IN   R30,0x36
0007d4 70ef      	ANDI R30,LOW(0xF)
0007d5 6ce0      	ORI  R30,LOW(0xC0)
0007d6 bfe6      	OUT  0x36,R30
0007d7 c07e      	RJMP _0x2020016
                 _0x202004A:
0007d8 c002      	RJMP _0x202004B
                 _0x2020048:
0007d9 9468      	SET
0007da f820      	BLD  R2,0
                 _0x202004B:
0007db c002      	RJMP _0x202004C
                 _0x2020045:
0007dc 38e8      	CPI  R30,LOW(0x88)
0007dd f409      	BRNE _0x202004D
                 _0x202004C:
0007de c002      	RJMP _0x202004E
                 _0x202004D:
0007df 39e8      	CPI  R30,LOW(0x98)
0007e0 f429      	BRNE _0x202004F
                 _0x202004E:
0007e1 b7e6      	IN   R30,0x36
0007e2 70ef      	ANDI R30,LOW(0xF)
0007e3 68e0      	ORI  R30,0x80
0007e4 bfe6      	OUT  0x36,R30
0007e5 c070      	RJMP _0x2020016
                 _0x202004F:
0007e6 3ae0      	CPI  R30,LOW(0xA0)
0007e7 f4a9      	BRNE _0x2020050
0007e8 b7e6      	IN   R30,0x36
0007e9 70ef      	ANDI R30,LOW(0xF)
0007ea 6ce0      	ORI  R30,LOW(0xC0)
0007eb bfe6      	OUT  0x36,R30
0007ec 9468      	SET
0007ed f821      	BLD  R2,1
0007ee 91e0 0183 	LDS  R30,_twi_slave_rx_handler_G101
0007f0 91f0 0184 	LDS  R31,_twi_slave_rx_handler_G101+1
0007f2 9730      	SBIW R30,0
0007f3 f039      	BREQ _0x2020051
0007f4 e0a1      	LDI  R26,LOW(1)
                +
0007f5 91e0 0183+LDS R30 , _twi_slave_rx_handler_G101 + ( 0 )
0007f7 91f0 0184+LDS R31 , _twi_slave_rx_handler_G101 + ( 0 ) + 1
0007f9 9509     +ICALL
                 	__CALL1MN _twi_slave_rx_handler_G101,0
0007fa c001      	RJMP _0x2020052
                 _0x2020051:
0007fb e026      	LDI  R18,LOW(6)
                 _0x2020052:
0007fc c059      	RJMP _0x2020016
                 _0x2020050:
0007fd 3be0      	CPI  R30,LOW(0xB0)
0007fe f411      	BRNE _0x2020053
0007ff e022      	LDI  R18,LOW(2)
000800 c002      	RJMP _0x2020054
                 _0x2020053:
000801 3ae8      	CPI  R30,LOW(0xA8)
000802 f4b9      	BRNE _0x2020055
                 _0x2020054:
000803 91e0 0185 	LDS  R30,_twi_slave_tx_handler_G101
000805 91f0 0186 	LDS  R31,_twi_slave_tx_handler_G101+1
000807 9730      	SBIW R30,0
000808 f059      	BREQ _0x2020056
000809 e0a0      	LDI  R26,LOW(0)
                +
00080a 91e0 0185+LDS R30 , _twi_slave_tx_handler_G101 + ( 0 )
00080c 91f0 0186+LDS R31 , _twi_slave_tx_handler_G101 + ( 0 ) + 1
00080e 9509     +ICALL
                 	__CALL1MN _twi_slave_tx_handler_G101,0
00080f 2f3e      	MOV  R19,R30
000810 30e0      	CPI  R30,0
000811 f011      	BREQ _0x2020058
000812 e020      	LDI  R18,LOW(0)
000813 c002      	RJMP _0x2020059
                 _0x2020056:
                 _0x2020058:
000814 e026      	LDI  R18,LOW(6)
000815 c03a      	RJMP _0x2020047
                 _0x2020059:
000816 e000      	LDI  R16,LOW(0)
000817 94e8      	CLT
000818 f820      	BLD  R2,0
000819 c002      	RJMP _0x202005A
                 _0x2020055:
00081a 3be8      	CPI  R30,LOW(0xB8)
00081b f4e1      	BRNE _0x202005B
                 _0x202005A:
00081c fe20      	SBRS R2,0
00081d c002      	RJMP _0x202005C
00081e e021      	LDI  R18,LOW(1)
00081f c030      	RJMP _0x2020047
                 _0x202005C:
000820 2fe0      	MOV  R30,R16
000821 5f0f      	SUBI R16,-1
000822 91a0 017c 	LDS  R26,_twi_tx_buffer_G101
000824 91b0 017d 	LDS  R27,_twi_tx_buffer_G101+1
000826 e0f0      	LDI  R31,0
000827 0fae      	ADD  R26,R30
000828 1fbf      	ADC  R27,R31
000829 91ec      	LD   R30,X
00082a b9e3      	OUT  0x3,R30
00082b 1703      	CP   R16,R19
00082c f420      	BRSH _0x202005D
00082d b7e6      	IN   R30,0x36
00082e 70ef      	ANDI R30,LOW(0xF)
00082f 6ce0      	ORI  R30,LOW(0xC0)
000830 c005      	RJMP _0x202006C
                 _0x202005D:
000831 9468      	SET
000832 f820      	BLD  R2,0
000833 b7e6      	IN   R30,0x36
000834 70ef      	ANDI R30,LOW(0xF)
000835 68e0      	ORI  R30,0x80
                 _0x202006C:
000836 bfe6      	OUT  0x36,R30
000837 c01e      	RJMP _0x2020016
                 _0x202005B:
000838 3ce0      	CPI  R30,LOW(0xC0)
000839 f011      	BREQ _0x2020060
00083a 3ce8      	CPI  R30,LOW(0xC8)
00083b f489      	BRNE _0x2020061
                 _0x2020060:
00083c b7e6      	IN   R30,0x36
00083d 70ef      	ANDI R30,LOW(0xF)
00083e 6ce0      	ORI  R30,LOW(0xC0)
00083f bfe6      	OUT  0x36,R30
000840 91e0 0185 	LDS  R30,_twi_slave_tx_handler_G101
000842 91f0 0186 	LDS  R31,_twi_slave_tx_handler_G101+1
000844 9730      	SBIW R30,0
000845 f031      	BREQ _0x2020062
000846 e0a1      	LDI  R26,LOW(1)
                +
000847 91e0 0185+LDS R30 , _twi_slave_tx_handler_G101 + ( 0 )
000849 91f0 0186+LDS R31 , _twi_slave_tx_handler_G101 + ( 0 ) + 1
00084b 9509     +ICALL
                 	__CALL1MN _twi_slave_tx_handler_G101,0
                 _0x2020062:
00084c c007      	RJMP _0x2020035
                 _0x2020061:
00084d 30e0      	CPI  R30,0
00084e f439      	BRNE _0x2020016
00084f e023      	LDI  R18,LOW(3)
                 _0x2020047:
                 _0x2020069:
000850 b7e6      	IN   R30,0x36
000851 70ef      	ANDI R30,LOW(0xF)
000852 6de0      	ORI  R30,LOW(0xD0)
                 _0x202006A:
000853 bfe6      	OUT  0x36,R30
                 _0x2020035:
000854 9468      	SET
000855 f821      	BLD  R2,1
                 _0x2020016:
000856 9310 0161 	STS  _twi_rx_index,R17
000858 9300 0160 	STS  _twi_tx_index,R16
00085a 9320 0162 	STS  _twi_result,R18
00085c 9330 017e 	STS  _bytes_to_tx_G101,R19
00085e 940e 0d67 	CALL __LOADLOCR6
000860 9626      	ADIW R28,6
000861 91e9      	LD   R30,Y+
000862 bfef      	OUT  SREG,R30
000863 91f9      	LD   R31,Y+
000864 91e9      	LD   R30,Y+
000865 91b9      	LD   R27,Y+
000866 91a9      	LD   R26,Y+
000867 9199      	LD   R25,Y+
000868 9189      	LD   R24,Y+
000869 9179      	LD   R23,Y+
00086a 9169      	LD   R22,Y+
00086b 90f9      	LD   R15,Y+
00086c 9019      	LD   R1,Y+
00086d 9009      	LD   R0,Y+
00086e 9518      	RETI
                 ; .FEND
                 	#ifndef __SLEEP_DEFINED__
                 	#endif
                 
                 	.DSEG
                 
                 	.CSEG
                 __lcd_write_nibble_G102:
                 ; .FSTART __lcd_write_nibble_G102
00086f 93aa      	ST   -Y,R26
000870 b3e5      	IN   R30,0x15
000871 70ef      	ANDI R30,LOW(0xF)
000872 2fae      	MOV  R26,R30
000873 81e8      	LD   R30,Y
000874 7fe0      	ANDI R30,LOW(0xF0)
000875 2bea      	OR   R30,R26
000876 bbe5      	OUT  0x15,R30
                +
000877 e08d     +LDI R24 , LOW ( 13 )
                +__DELAY_USB_LOOP :
000878 958a     +DEC R24
000879 f7f1     +BRNE __DELAY_USB_LOOP
                 	__DELAY_USB 13
00087a 9aaa      	SBI  0x15,2
                +
00087b e08d     +LDI R24 , LOW ( 13 )
                +__DELAY_USB_LOOP :
00087c 958a     +DEC R24
00087d f7f1     +BRNE __DELAY_USB_LOOP
                 	__DELAY_USB 13
00087e 98aa      	CBI  0x15,2
                +
00087f e08d     +LDI R24 , LOW ( 13 )
                +__DELAY_USB_LOOP :
000880 958a     +DEC R24
000881 f7f1     +BRNE __DELAY_USB_LOOP
                 	__DELAY_USB 13
000882 c08b      	RJMP _0x20C0001
                 ; .FEND
                 __lcd_write_data:
                 ; .FSTART __lcd_write_data
000883 93aa      	ST   -Y,R26
000884 81a8      	LD   R26,Y
000885 dfe9      	RCALL __lcd_write_nibble_G102
000886 81e8          ld    r30,y
000887 95e2          swap  r30
000888 83e8          st    y,r30
000889 81a8      	LD   R26,Y
00088a dfe4      	RCALL __lcd_write_nibble_G102
                +
00088b e885     +LDI R24 , LOW ( 133 )
                +__DELAY_USB_LOOP :
00088c 958a     +DEC R24
00088d f7f1     +BRNE __DELAY_USB_LOOP
                 	__DELAY_USB 133
00088e c07f      	RJMP _0x20C0001
                 ; .FEND
                 _lcd_gotoxy:
                 ; .FSTART _lcd_gotoxy
00088f 93aa      	ST   -Y,R26
000890 81e8      	LD   R30,Y
000891 e0f0      	LDI  R31,0
000892 57e9      	SUBI R30,LOW(-__base_y_G102)
000893 4ffe      	SBCI R31,HIGH(-__base_y_G102)
000894 81e0      	LD   R30,Z
000895 81a9      	LDD  R26,Y+1
000896 0fae      	ADD  R26,R30
000897 dfeb      	RCALL __lcd_write_data
000898 81e9      	LDD  R30,Y+1
000899 93e0 018b 	STS  __lcd_x,R30
00089b 81e8      	LD   R30,Y
00089c 93e0 018c 	STS  __lcd_y,R30
00089e 9622      	ADIW R28,2
00089f 9508      	RET
                 ; .FEND
                 _lcd_clear:
                 ; .FSTART _lcd_clear
0008a0 e0a2      	LDI  R26,LOW(2)
0008a1 940e 0a6a 	CALL SUBOPT_0x3B
0008a3 e0ac      	LDI  R26,LOW(12)
0008a4 dfde      	RCALL __lcd_write_data
0008a5 e0a1      	LDI  R26,LOW(1)
0008a6 940e 0a6a 	CALL SUBOPT_0x3B
0008a8 e0e0      	LDI  R30,LOW(0)
0008a9 93e0 018c 	STS  __lcd_y,R30
0008ab 93e0 018b 	STS  __lcd_x,R30
0008ad 9508      	RET
                 ; .FEND
                 _lcd_putchar:
                 ; .FSTART _lcd_putchar
0008ae 93aa      	ST   -Y,R26
0008af 81a8      	LD   R26,Y
0008b0 30aa      	CPI  R26,LOW(0xA)
0008b1 f031      	BREQ _0x2040005
0008b2 91e0 018d 	LDS  R30,__lcd_maxx
0008b4 91a0 018b 	LDS  R26,__lcd_x
0008b6 17ae      	CP   R26,R30
0008b7 f060      	BRLO _0x2040004
                 _0x2040005:
0008b8 e0e0      	LDI  R30,LOW(0)
0008b9 93ea      	ST   -Y,R30
0008ba 91a0 018c 	LDS  R26,__lcd_y
0008bc 5faf      	SUBI R26,-LOW(1)
0008bd 93a0 018c 	STS  __lcd_y,R26
0008bf dfcf      	RCALL _lcd_gotoxy
0008c0 81a8      	LD   R26,Y
0008c1 30aa      	CPI  R26,LOW(0xA)
0008c2 f409      	BRNE _0x2040007
0008c3 c04a      	RJMP _0x20C0001
                 _0x2040007:
                 _0x2040004:
0008c4 91e0 018b 	LDS  R30,__lcd_x
0008c6 5fef      	SUBI R30,-LOW(1)
0008c7 93e0 018b 	STS  __lcd_x,R30
0008c9 9aa8      	SBI  0x15,0
0008ca 81a8      	LD   R26,Y
0008cb dfb7      	RCALL __lcd_write_data
0008cc 98a8      	CBI  0x15,0
0008cd c040      	RJMP _0x20C0001
                 ; .FEND
                 _lcd_putsf:
                 ; .FSTART _lcd_putsf
0008ce 93ba      	ST   -Y,R27
0008cf 93aa      	ST   -Y,R26
0008d0 931a      	ST   -Y,R17
                 _0x204000B:
0008d1 81e9      	LDD  R30,Y+1
0008d2 81fa      	LDD  R31,Y+1+1
0008d3 9631      	ADIW R30,1
0008d4 83e9      	STD  Y+1,R30
0008d5 83fa      	STD  Y+1+1,R31
0008d6 9731      	SBIW R30,1
0008d7 91e4      	LPM  R30,Z
0008d8 2f1e      	MOV  R17,R30
0008d9 30e0      	CPI  R30,0
0008da f019      	BREQ _0x204000D
0008db 2fa1      	MOV  R26,R17
0008dc dfd1      	RCALL _lcd_putchar
0008dd cff3      	RJMP _0x204000B
                 _0x204000D:
0008de 8118      	LDD  R17,Y+0
0008df 9623      	ADIW R28,3
0008e0 9508      	RET
                 ; .FEND
                 _lcd_init:
                 ; .FSTART _lcd_init
0008e1 93aa      	ST   -Y,R26
0008e2 b3e4      	IN   R30,0x14
0008e3 6fe0      	ORI  R30,LOW(0xF0)
0008e4 bbe4      	OUT  0x14,R30
0008e5 9aa2      	SBI  0x14,2
0008e6 9aa0      	SBI  0x14,0
0008e7 9aa1      	SBI  0x14,1
0008e8 98aa      	CBI  0x15,2
0008e9 98a8      	CBI  0x15,0
0008ea 98a9      	CBI  0x15,1
0008eb 81e8      	LD   R30,Y
0008ec 93e0 018d 	STS  __lcd_maxx,R30
0008ee 58e0      	SUBI R30,-LOW(128)
                +
0008ef 93e0 0189+STS __base_y_G102 + ( 2 ) , R30
                 	__PUTB1MN __base_y_G102,2
0008f1 81e8      	LD   R30,Y
0008f2 54e0      	SUBI R30,-LOW(192)
                +
0008f3 93e0 018a+STS __base_y_G102 + ( 3 ) , R30
                 	__PUTB1MN __base_y_G102,3
0008f5 e1a4      	LDI  R26,LOW(20)
0008f6 e0b0      	LDI  R27,0
0008f7 940e 0ac9 	CALL _delay_ms
0008f9 940e 0a70 	CALL SUBOPT_0x3C
0008fb 940e 0a70 	CALL SUBOPT_0x3C
0008fd 940e 0a70 	CALL SUBOPT_0x3C
0008ff e2a0      	LDI  R26,LOW(32)
000900 df6e      	RCALL __lcd_write_nibble_G102
                +
000901 ec88     +LDI R24 , LOW ( 200 )
000902 e090     +LDI R25 , HIGH ( 200 )
                +__DELAY_USW_LOOP :
000903 9701     +SBIW R24 , 1
000904 f7f1     +BRNE __DELAY_USW_LOOP
                 	__DELAY_USW 200
000905 e2a8      	LDI  R26,LOW(40)
000906 df7c      	RCALL __lcd_write_data
000907 e0a4      	LDI  R26,LOW(4)
000908 df7a      	RCALL __lcd_write_data
000909 e8a5      	LDI  R26,LOW(133)
00090a df78      	RCALL __lcd_write_data
00090b e0a6      	LDI  R26,LOW(6)
00090c df76      	RCALL __lcd_write_data
00090d df92      	RCALL _lcd_clear
                 _0x20C0001:
00090e 9621      	ADIW R28,1
00090f 9508      	RET
                 ; .FEND
                 
                 	.CSEG
                 
                 	.DSEG
                 
                 	.CSEG
                 
                 	.CSEG
                 
                 	.CSEG
                 
                 	.DSEG
                 _twi_tx_index:
000160           	.BYTE 0x1
                 _twi_rx_index:
000161           	.BYTE 0x1
                 _twi_result:
000162           	.BYTE 0x1
                 _y:
000163           	.BYTE 0x2
                 _width:
000165           	.BYTE 0x2
                 _height:
000167           	.BYTE 0x2
                 _checksum:
000169           	.BYTE 0x2
                 _signature:
00016b           	.BYTE 0x2
                 _a:
00016d           	.BYTE 0x1
                 _x_robot:
00016e           	.BYTE 0x2
                 _y_robot:
000170           	.BYTE 0x2
                 _ball_angle:
000172           	.BYTE 0x2
                 _ball:
000174           	.BYTE 0x2
                 _ball_distance:
000176           	.BYTE 0x2
                 _is_ball:
000178           	.BYTE 0x1
                 _address:
000179           	.BYTE 0x2
                 _slave_address_G101:
00017b           	.BYTE 0x1
                 _twi_tx_buffer_G101:
00017c           	.BYTE 0x2
                 _bytes_to_tx_G101:
00017e           	.BYTE 0x1
                 _twi_rx_buffer_G101:
00017f           	.BYTE 0x2
                 _bytes_to_rx_G101:
000181           	.BYTE 0x1
                 _twi_rx_buffer_size_G101:
000182           	.BYTE 0x1
                 _twi_slave_rx_handler_G101:
000183           	.BYTE 0x2
                 _twi_slave_tx_handler_G101:
000185           	.BYTE 0x2
                 __base_y_G102:
000187           	.BYTE 0x4
                 __lcd_x:
00018b           	.BYTE 0x1
                 __lcd_y:
00018c           	.BYTE 0x1
                 __lcd_maxx:
00018d           	.BYTE 0x1
                 __seed_G103:
00018e           	.BYTE 0x4
                 
                 	.CSEG
                 ;OPTIMIZER ADDED SUBROUTINE, CALLED 2 TIMES, CODE SIZE REDUCTION:4 WORDS
                 SUBOPT_0x0:
000910 940e 0ab1 	CALL _i2c_write
000912 e0a0      	LDI  R26,LOW(0)
000913 940e 0a96 	CALL _i2c_read
000915 2f1e      	MOV  R17,R30
000916 940e 0a8c 	CALL _i2c_stop
000918 2fe1      	MOV  R30,R17
000919 9508      	RET
                 
                 ;OPTIMIZER ADDED SUBROUTINE, CALLED 4 TIMES, CODE SIZE REDUCTION:3 WORDS
                 SUBOPT_0x1:
00091a 93ea      	ST   -Y,R30
00091b e0a0      	LDI  R26,LOW(0)
00091c 940c 088f 	JMP  _lcd_gotoxy
                 
                 ;OPTIMIZER ADDED SUBROUTINE, CALLED 5 TIMES, CODE SIZE REDUCTION:41 WORDS
                 SUBOPT_0x2:
00091e e6e4      	LDI  R30,LOW(100)
00091f e0f0      	LDI  R31,HIGH(100)
000920 940e 0d01 	CALL __DIVW21
000922 01df      	MOVW R26,R30
000923 e0ea      	LDI  R30,LOW(10)
000924 e0f0      	LDI  R31,HIGH(10)
000925 940e 0d06 	CALL __MODW21
000927 5de0      	SUBI R30,-LOW(48)
000928 2fae      	MOV  R26,R30
000929 940c 08ae 	JMP  _lcd_putchar
                 
                 ;OPTIMIZER ADDED SUBROUTINE, CALLED 6 TIMES, CODE SIZE REDUCTION:52 WORDS
                 SUBOPT_0x3:
00092b e0ea      	LDI  R30,LOW(10)
00092c e0f0      	LDI  R31,HIGH(10)
00092d 940e 0d01 	CALL __DIVW21
00092f 01df      	MOVW R26,R30
000930 e0ea      	LDI  R30,LOW(10)
000931 e0f0      	LDI  R31,HIGH(10)
000932 940e 0d06 	CALL __MODW21
000934 5de0      	SUBI R30,-LOW(48)
000935 2fae      	MOV  R26,R30
000936 940c 08ae 	JMP  _lcd_putchar
                 
                 ;OPTIMIZER ADDED SUBROUTINE, CALLED 3 TIMES, CODE SIZE REDUCTION:1 WORDS
                 SUBOPT_0x4:
000938 01f4      	MOVW R30,R8
000939 940e 0cd0 	CALL __ANEGW1
00093b 01df      	MOVW R26,R30
00093c 9508      	RET
                 
                 ;OPTIMIZER ADDED SUBROUTINE, CALLED 5 TIMES, CODE SIZE REDUCTION:13 WORDS
                 SUBOPT_0x5:
00093d 940e 0d06 	CALL __MODW21
00093f 5de0      	SUBI R30,-LOW(48)
000940 2fae      	MOV  R26,R30
000941 940c 08ae 	JMP  _lcd_putchar
                 
                 ;OPTIMIZER ADDED SUBROUTINE, CALLED 4 TIMES, CODE SIZE REDUCTION:6 WORDS
                 SUBOPT_0x6:
000943 925a      	ST   -Y,R5
000944 924a      	ST   -Y,R4
000945 01f2      	MOVW R30,R4
000946 940e 0cd0 	CALL __ANEGW1
000948 9508      	RET
                 
                 ;OPTIMIZER ADDED SUBROUTINE, CALLED 11 TIMES, CODE SIZE REDUCTION:27 WORDS
                 SUBOPT_0x7:
000949 93fa      	ST   -Y,R31
00094a 93ea      	ST   -Y,R30
00094b 01f2      	MOVW R30,R4
00094c 940e 0cd0 	CALL __ANEGW1
00094e 9508      	RET
                 
                 ;OPTIMIZER ADDED SUBROUTINE, CALLED 3 TIMES, CODE SIZE REDUCTION:7 WORDS
                 SUBOPT_0x8:
00094f 925a      	ST   -Y,R5
000950 924a      	ST   -Y,R4
000951 01d2      	MOVW R26,R4
000952 e0e2      	LDI  R30,LOW(2)
000953 e0f0      	LDI  R31,HIGH(2)
000954 940e 0d01 	CALL __DIVW21
000956 9508      	RET
                 
                 ;OPTIMIZER ADDED SUBROUTINE, CALLED 7 TIMES, CODE SIZE REDUCTION:15 WORDS
                 SUBOPT_0x9:
000957 01df      	MOVW R26,R30
000958 e0e2      	LDI  R30,LOW(2)
000959 e0f0      	LDI  R31,HIGH(2)
00095a 940e 0d01 	CALL __DIVW21
00095c 9508      	RET
                 
                 ;OPTIMIZER ADDED SUBROUTINE, CALLED 2 TIMES, CODE SIZE REDUCTION:1 WORDS
                 SUBOPT_0xA:
00095d 925a      	ST   -Y,R5
00095e 924a      	ST   -Y,R4
00095f e0e0      	LDI  R30,LOW(0)
000960 e0f0      	LDI  R31,HIGH(0)
000961 cfe7      	RJMP SUBOPT_0x7
                 
                 ;OPTIMIZER ADDED SUBROUTINE, CALLED 2 TIMES, CODE SIZE REDUCTION:1 WORDS
                 SUBOPT_0xB:
000962 93fa      	ST   -Y,R31
000963 93ea      	ST   -Y,R30
000964 e0a0      	LDI  R26,LOW(0)
000965 e0b0      	LDI  R27,0
000966 940c 00ff 	JMP  _motor
                 
                 ;OPTIMIZER ADDED SUBROUTINE, CALLED 2 TIMES, CODE SIZE REDUCTION:2 WORDS
                 SUBOPT_0xC:
000968 93fa      	ST   -Y,R31
000969 93ea      	ST   -Y,R30
00096a 01d2      	MOVW R26,R4
00096b e0e2      	LDI  R30,LOW(2)
00096c e0f0      	LDI  R31,HIGH(2)
00096d 940e 0d01 	CALL __DIVW21
00096f 9508      	RET
                 
                 ;OPTIMIZER ADDED SUBROUTINE, CALLED 4 TIMES, CODE SIZE REDUCTION:6 WORDS
                 SUBOPT_0xD:
000970 93fa      	ST   -Y,R31
000971 93ea      	ST   -Y,R30
000972 01d2      	MOVW R26,R4
000973 940c 00ff 	JMP  _motor
                 
                 ;OPTIMIZER ADDED SUBROUTINE, CALLED 3 TIMES, CODE SIZE REDUCTION:3 WORDS
                 SUBOPT_0xE:
000975 01d2      	MOVW R26,R4
000976 e0e2      	LDI  R30,LOW(2)
000977 e0f0      	LDI  R31,HIGH(2)
000978 940e 0d01 	CALL __DIVW21
00097a 9508      	RET
                 
                 ;OPTIMIZER ADDED SUBROUTINE, CALLED 4 TIMES, CODE SIZE REDUCTION:3 WORDS
                 SUBOPT_0xF:
00097b 93fa      	ST   -Y,R31
00097c 93ea      	ST   -Y,R30
00097d e0e0      	LDI  R30,LOW(0)
00097e e0f0      	LDI  R31,HIGH(0)
00097f 9508      	RET
                 
                 ;OPTIMIZER ADDED SUBROUTINE, CALLED 3 TIMES, CODE SIZE REDUCTION:1 WORDS
                 SUBOPT_0x10:
000980 01f2      	MOVW R30,R4
000981 940e 0cd0 	CALL __ANEGW1
000983 01bf      	MOVW R22,R30
000984 9508      	RET
                 
                 ;OPTIMIZER ADDED SUBROUTINE, CALLED 3 TIMES, CODE SIZE REDUCTION:3 WORDS
                 SUBOPT_0x11:
000985 01f2      	MOVW R30,R4
000986 940e 0cd0 	CALL __ANEGW1
000988 93fa      	ST   -Y,R31
000989 93ea      	ST   -Y,R30
00098a 9508      	RET
                 
                 ;OPTIMIZER ADDED SUBROUTINE, CALLED 3 TIMES, CODE SIZE REDUCTION:1 WORDS
                 SUBOPT_0x12:
00098b 93fa      	ST   -Y,R31
00098c 93ea      	ST   -Y,R30
00098d 925a      	ST   -Y,R5
00098e 924a      	ST   -Y,R4
00098f 9508      	RET
                 
                 ;OPTIMIZER ADDED SUBROUTINE, CALLED 2 TIMES, CODE SIZE REDUCTION:1 WORDS
                 SUBOPT_0x13:
000990 940e 0083 	CALL _read
000992 93e0 016d 	STS  _a,R30
000994 91a0 016d 	LDS  R26,_a
000996 9508      	RET
                 
                 ;OPTIMIZER ADDED SUBROUTINE, CALLED 2 TIMES, CODE SIZE REDUCTION:1 WORDS
                 SUBOPT_0x14:
000997 93e0 0169 	STS  _checksum,R30
000999 93f0 016a 	STS  _checksum+1,R31
00099b 940c 0083 	JMP  _read
                 
                 ;OPTIMIZER ADDED SUBROUTINE, CALLED 2 TIMES, CODE SIZE REDUCTION:1 WORDS
                 SUBOPT_0x15:
00099d 93e0 016b 	STS  _signature,R30
00099f 93f0 016c 	STS  _signature+1,R31
0009a1 940c 0083 	JMP  _read
                 
                 ;OPTIMIZER ADDED SUBROUTINE, CALLED 4 TIMES, CODE SIZE REDUCTION:6 WORDS
                 SUBOPT_0x16:
0009a3 940e 0083 	CALL _read
0009a5 efaf      	LDI  R26,LOW(255)
0009a6 9fea      	MUL  R30,R26
0009a7 01f0      	MOVW R30,R0
0009a8 9508      	RET
                 
                 ;OPTIMIZER ADDED SUBROUTINE, CALLED 5 TIMES, CODE SIZE REDUCTION:5 WORDS
                 SUBOPT_0x17:
0009a9 91a0 0163 	LDS  R26,_y
0009ab 91b0 0164 	LDS  R27,_y+1
0009ad 9508      	RET
                 
                 ;OPTIMIZER ADDED SUBROUTINE, CALLED 3 TIMES, CODE SIZE REDUCTION:9 WORDS
                 SUBOPT_0x18:
0009ae 1bea      	SUB  R30,R26
0009af 0bfb      	SBC  R31,R27
0009b0 940e 0cdc 	CALL __CWD1
0009b2 940e 0b5c 	CALL __CDF1
0009b4 940e 0d36 	CALL __PUTPARD1
0009b6 9508      	RET
                 
                 ;OPTIMIZER ADDED SUBROUTINE, CALLED 5 TIMES, CODE SIZE REDUCTION:13 WORDS
                 SUBOPT_0x19:
0009b7 940e 0cdc 	CALL __CWD1
0009b9 940e 0b5c 	CALL __CDF1
0009bb 01df      	MOVW R26,R30
0009bc 01cb      	MOVW R24,R22
0009bd 9508      	RET
                 
                 ;OPTIMIZER ADDED SUBROUTINE, CALLED 4 TIMES, CODE SIZE REDUCTION:3 WORDS
                 SUBOPT_0x1A:
0009be 940e 0be6 	CALL __MULF12
0009c0 01df      	MOVW R26,R30
0009c1 01cb      	MOVW R24,R22
0009c2 9508      	RET
                 
                 ;OPTIMIZER ADDED SUBROUTINE, CALLED 5 TIMES, CODE SIZE REDUCTION:5 WORDS
                 SUBOPT_0x1B:
0009c3 91e0 0172 	LDS  R30,_ball_angle
0009c5 91f0 0173 	LDS  R31,_ball_angle+1
0009c7 9508      	RET
                 
                 ;OPTIMIZER ADDED SUBROUTINE, CALLED 4 TIMES, CODE SIZE REDUCTION:3 WORDS
                 SUBOPT_0x1C:
0009c8 dffa      	RCALL SUBOPT_0x1B
0009c9 cfed      	RJMP SUBOPT_0x19
                 
                 ;OPTIMIZER ADDED SUBROUTINE, CALLED 3 TIMES, CODE SIZE REDUCTION:1 WORDS
                 SUBOPT_0x1D:
                +
0009ca e0e0     +LDI R30 , LOW ( 0x41340000 )
0009cb e0f0     +LDI R31 , HIGH ( 0x41340000 )
0009cc e364     +LDI R22 , BYTE3 ( 0x41340000 )
0009cd e471     +LDI R23 , BYTE4 ( 0x41340000 )
                 	__GETD1N 0x41340000
0009ce 9508      	RET
                 
                 ;OPTIMIZER ADDED SUBROUTINE, CALLED 2 TIMES, CODE SIZE REDUCTION:1 WORDS
                 SUBOPT_0x1E:
0009cf dffa      	RCALL SUBOPT_0x1D
0009d0 940e 0d40 	CALL __SWAPD12
0009d2 940e 0b8f 	CALL __SUBF12
0009d4 9508      	RET
                 
                 ;OPTIMIZER ADDED SUBROUTINE, CALLED 2 TIMES, CODE SIZE REDUCTION:5 WORDS
                 SUBOPT_0x1F:
0009d5 940e 0cdc 	CALL __CWD1
0009d7 940e 0b5c 	CALL __CDF1
                +
0009d9 e0a0     +LDI R26 , LOW ( 0x41B40000 )
0009da e0b0     +LDI R27 , HIGH ( 0x41B40000 )
0009db eb84     +LDI R24 , BYTE3 ( 0x41B40000 )
0009dc e491     +LDI R25 , BYTE4 ( 0x41B40000 )
                 	__GETD2N 0x41B40000
0009dd 940e 0be6 	CALL __MULF12
0009df 9508      	RET
                 
                 ;OPTIMIZER ADDED SUBROUTINE, CALLED 2 TIMES, CODE SIZE REDUCTION:1 WORDS
                 SUBOPT_0x20:
                +
0009e0 e0a0     +LDI R26 , LOW ( 0x40000000 )
0009e1 e0b0     +LDI R27 , HIGH ( 0x40000000 )
0009e2 e080     +LDI R24 , BYTE3 ( 0x40000000 )
0009e3 e490     +LDI R25 , BYTE4 ( 0x40000000 )
                 	__GETD2N 0x40000000
0009e4 940c 05fe 	JMP  _pow
                 
                 ;OPTIMIZER ADDED SUBROUTINE, CALLED 20 TIMES, CODE SIZE REDUCTION:35 WORDS
                 SUBOPT_0x21:
0009e6 91a0 0174 	LDS  R26,_ball
0009e8 91b0 0175 	LDS  R27,_ball+1
0009ea 9508      	RET
                 
                 ;OPTIMIZER ADDED SUBROUTINE, CALLED 4 TIMES, CODE SIZE REDUCTION:3 WORDS
                 SUBOPT_0x22:
0009eb e0ea      	LDI  R30,LOW(10)
0009ec e0f0      	LDI  R31,HIGH(10)
0009ed cf4f      	RJMP SUBOPT_0x5
                 
                 ;OPTIMIZER ADDED SUBROUTINE, CALLED 4 TIMES, CODE SIZE REDUCTION:3 WORDS
                 SUBOPT_0x23:
0009ee 91a0 0176 	LDS  R26,_ball_distance
0009f0 91b0 0177 	LDS  R27,_ball_distance+1
0009f2 9508      	RET
                 
                 ;OPTIMIZER ADDED SUBROUTINE, CALLED 2 TIMES, CODE SIZE REDUCTION:1 WORDS
                 SUBOPT_0x24:
0009f3 940e 0d3b 	CALL __PUTPARD2
0009f5 940e 0d2c 	CALL __GETD2S0
0009f7 9508      	RET
                 
                 ;OPTIMIZER ADDED SUBROUTINE, CALLED 3 TIMES, CODE SIZE REDUCTION:1 WORDS
                 SUBOPT_0x25:
0009f8 940e 0d31 	CALL __PUTD1S0
0009fa 9508      	RET
                 
                 ;OPTIMIZER ADDED SUBROUTINE, CALLED 10 TIMES, CODE SIZE REDUCTION:15 WORDS
                 SUBOPT_0x26:
0009fb 940e 0d27 	CALL __GETD1S0
0009fd 9508      	RET
                 
                 ;OPTIMIZER ADDED SUBROUTINE, CALLED 4 TIMES, CODE SIZE REDUCTION:9 WORDS
                 SUBOPT_0x27:
0009fe dffc      	RCALL SUBOPT_0x26
                +
0009ff e0a0     +LDI R26 , LOW ( 0x3F800000 )
000a00 e0b0     +LDI R27 , HIGH ( 0x3F800000 )
000a01 e880     +LDI R24 , BYTE3 ( 0x3F800000 )
000a02 e39f     +LDI R25 , BYTE4 ( 0x3F800000 )
                 	__GETD2N 0x3F800000
000a03 9508      	RET
                 
                 ;OPTIMIZER ADDED SUBROUTINE, CALLED 8 TIMES, CODE SIZE REDUCTION:11 WORDS
                 SUBOPT_0x28:
                +
000a04 81ae     +LDD R26 , Y + 6
000a05 81bf     +LDD R27 , Y + 6 + 1
000a06 8588     +LDD R24 , Y + 6 + 2
000a07 8599     +LDD R25 , Y + 6 + 3
                 	__GETD2S 6
000a08 9508      	RET
                 
                 ;OPTIMIZER ADDED SUBROUTINE, CALLED 7 TIMES, CODE SIZE REDUCTION:9 WORDS
                 SUBOPT_0x29:
                +
000a09 81ee     +LDD R30 , Y + 6
000a0a 81ff     +LDD R31 , Y + 6 + 1
000a0b 8568     +LDD R22 , Y + 6 + 2
000a0c 8579     +LDD R23 , Y + 6 + 3
                 	__GETD1S 6
000a0d 9508      	RET
                 
                 ;OPTIMIZER ADDED SUBROUTINE, CALLED 5 TIMES, CODE SIZE REDUCTION:5 WORDS
                 SUBOPT_0x2A:
                +
000a0e 83ee     +STD Y + 6 , R30
000a0f 83ff     +STD Y + 6 + 1 , R31
000a10 8768     +STD Y + 6 + 2 , R22
000a11 8779     +STD Y + 6 + 3 , R23
                 	__PUTD1S 6
000a12 9508      	RET
                 
                 ;OPTIMIZER ADDED SUBROUTINE, CALLED 3 TIMES, CODE SIZE REDUCTION:1 WORDS
                 SUBOPT_0x2B:
000a13 dff5      	RCALL SUBOPT_0x29
000a14 cfef      	RJMP SUBOPT_0x28
                 
                 ;OPTIMIZER ADDED SUBROUTINE, CALLED 2 TIMES, CODE SIZE REDUCTION:1 WORDS
                 SUBOPT_0x2C:
000a15 dff3      	RCALL SUBOPT_0x29
                +
000a16 e0a0     +LDI R26 , LOW ( 0x3F800000 )
000a17 e0b0     +LDI R27 , HIGH ( 0x3F800000 )
000a18 e880     +LDI R24 , BYTE3 ( 0x3F800000 )
000a19 e39f     +LDI R25 , BYTE4 ( 0x3F800000 )
                 	__GETD2N 0x3F800000
000a1a 9508      	RET
                 
                 ;OPTIMIZER ADDED SUBROUTINE, CALLED 2 TIMES, CODE SIZE REDUCTION:5 WORDS
                 SUBOPT_0x2D:
000a1b 940e 0be6 	CALL __MULF12
                +
000a1d 83ea     +STD Y + 2 , R30
000a1e 83fb     +STD Y + 2 + 1 , R31
000a1f 836c     +STD Y + 2 + 2 , R22
000a20 837d     +STD Y + 2 + 3 , R23
                 	__PUTD1S 2
000a21 9508      	RET
                 
                 ;OPTIMIZER ADDED SUBROUTINE, CALLED 5 TIMES, CODE SIZE REDUCTION:5 WORDS
                 SUBOPT_0x2E:
000a22 940e 0d40 	CALL __SWAPD12
000a24 940e 0b8f 	CALL __SUBF12
000a26 9508      	RET
                 
                 ;OPTIMIZER ADDED SUBROUTINE, CALLED 3 TIMES, CODE SIZE REDUCTION:1 WORDS
                 SUBOPT_0x2F:
                +
000a27 81ea     +LDD R30 , Y + 2
000a28 81fb     +LDD R31 , Y + 2 + 1
000a29 816c     +LDD R22 , Y + 2 + 2
000a2a 817d     +LDD R23 , Y + 2 + 3
                 	__GETD1S 2
000a2b 9508      	RET
                 
                 ;OPTIMIZER ADDED SUBROUTINE, CALLED 5 TIMES, CODE SIZE REDUCTION:5 WORDS
                 SUBOPT_0x30:
                +
000a2c 85aa     +LDD R26 , Y + 10
000a2d 85bb     +LDD R27 , Y + 10 + 1
000a2e 858c     +LDD R24 , Y + 10 + 2
000a2f 859d     +LDD R25 , Y + 10 + 3
                 	__GETD2S 10
000a30 9508      	RET
                 
                 ;OPTIMIZER ADDED SUBROUTINE, CALLED 3 TIMES, CODE SIZE REDUCTION:1 WORDS
                 SUBOPT_0x31:
                +
000a31 e0e0     +LDI R30 , LOW ( 0x0 )
000a32 e0f0     +LDI R31 , HIGH ( 0x0 )
000a33 e060     +LDI R22 , BYTE3 ( 0x0 )
000a34 e070     +LDI R23 , BYTE4 ( 0x0 )
                 	__GETD1N 0x0
000a35 9508      	RET
                 
                 ;OPTIMIZER ADDED SUBROUTINE, CALLED 5 TIMES, CODE SIZE REDUCTION:5 WORDS
                 SUBOPT_0x32:
                +
000a36 85e8     +LDD R30 , Y + 8
000a37 85f9     +LDD R31 , Y + 8 + 1
000a38 856a     +LDD R22 , Y + 8 + 2
000a39 857b     +LDD R23 , Y + 8 + 3
                 	__GETD1S 8
000a3a 9508      	RET
                 
                 ;OPTIMIZER ADDED SUBROUTINE, CALLED 4 TIMES, CODE SIZE REDUCTION:3 WORDS
                 SUBOPT_0x33:
                +
000a3b 85a8     +LDD R26 , Y + 8
000a3c 85b9     +LDD R27 , Y + 8 + 1
000a3d 858a     +LDD R24 , Y + 8 + 2
000a3e 859b     +LDD R25 , Y + 8 + 3
                 	__GETD2S 8
000a3f 9508      	RET
                 
                 ;OPTIMIZER ADDED SUBROUTINE, CALLED 6 TIMES, CODE SIZE REDUCTION:7 WORDS
                 SUBOPT_0x34:
                +
000a40 81ec     +LDD R30 , Y + 4
000a41 81fd     +LDD R31 , Y + 4 + 1
000a42 816e     +LDD R22 , Y + 4 + 2
000a43 817f     +LDD R23 , Y + 4 + 3
                 	__GETD1S 4
000a44 9508      	RET
                 
                 ;OPTIMIZER ADDED SUBROUTINE, CALLED 2 TIMES, CODE SIZE REDUCTION:3 WORDS
                 SUBOPT_0x35:
000a45 940e 04e2 	CALL _log
                +
000a47 81ac     +LDD R26 , Y + 4
000a48 81bd     +LDD R27 , Y + 4 + 1
000a49 818e     +LDD R24 , Y + 4 + 2
000a4a 819f     +LDD R25 , Y + 4 + 3
                 	__GETD2S 4
000a4b cf72      	RJMP SUBOPT_0x1A
                 
                 ;OPTIMIZER ADDED SUBROUTINE, CALLED 3 TIMES, CODE SIZE REDUCTION:1 WORDS
                 SUBOPT_0x36:
000a4c 940e 0af0 	CALL __ANEGF1
000a4e 01df      	MOVW R26,R30
000a4f 01cb      	MOVW R24,R22
000a50 9508      	RET
                 
                 ;OPTIMIZER ADDED SUBROUTINE, CALLED 2 TIMES, CODE SIZE REDUCTION:1 WORDS
                 SUBOPT_0x37:
                +
000a51 81ac     +LDD R26 , Y + 4
000a52 81bd     +LDD R27 , Y + 4 + 1
000a53 818e     +LDD R24 , Y + 4 + 2
000a54 819f     +LDD R25 , Y + 4 + 3
                 	__GETD2S 4
000a55 940e 0be6 	CALL __MULF12
000a57 9508      	RET
                 
                 ;OPTIMIZER ADDED SUBROUTINE, CALLED 2 TIMES, CODE SIZE REDUCTION:3 WORDS
                 SUBOPT_0x38:
000a58 940e 0be6 	CALL __MULF12
                +
000a5a e4ae     +LDI R26 , LOW ( 0x414A8F4E )
000a5b e8bf     +LDI R27 , HIGH ( 0x414A8F4E )
000a5c e48a     +LDI R24 , BYTE3 ( 0x414A8F4E )
000a5d e491     +LDI R25 , BYTE4 ( 0x414A8F4E )
                 	__GETD2N 0x414A8F4E
000a5e 940e 0b96 	CALL __ADDF12
000a60 9508      	RET
                 
                 ;OPTIMIZER ADDED SUBROUTINE, CALLED 5 TIMES, CODE SIZE REDUCTION:5 WORDS
                 SUBOPT_0x39:
000a61 940e 0d2c 	CALL __GETD2S0
000a63 9508      	RET
                 
                 ;OPTIMIZER ADDED SUBROUTINE, CALLED 2 TIMES, CODE SIZE REDUCTION:1 WORDS
                 SUBOPT_0x3A:
000a64 940e 0c34 	CALL __DIVF21
000a66 01df      	MOVW R26,R30
000a67 01cb      	MOVW R24,R22
000a68 940c 0649 	JMP  _xatan
                 
                 ;OPTIMIZER ADDED SUBROUTINE, CALLED 2 TIMES, CODE SIZE REDUCTION:1 WORDS
                 SUBOPT_0x3B:
000a6a 940e 0883 	CALL __lcd_write_data
000a6c e0a3      	LDI  R26,LOW(3)
000a6d e0b0      	LDI  R27,0
000a6e 940c 0ac9 	JMP  _delay_ms
                 
                 ;OPTIMIZER ADDED SUBROUTINE, CALLED 3 TIMES, CODE SIZE REDUCTION:7 WORDS
                 SUBOPT_0x3C:
000a70 e3a0      	LDI  R26,LOW(48)
000a71 940e 086f 	CALL __lcd_write_nibble_G102
                +
000a73 ec88     +LDI R24 , LOW ( 200 )
000a74 e090     +LDI R25 , HIGH ( 200 )
                +__DELAY_USW_LOOP :
000a75 9701     +SBIW R24 , 1
000a76 f7f1     +BRNE __DELAY_USW_LOOP
                 	__DELAY_USW 200
000a77 9508      	RET
                 
                 
                 	.CSEG
                 	.equ __sda_bit=1
                 	.equ __scl_bit=0
                 	.equ __i2c_port=0x18 ;PORTB
                 	.equ __i2c_dir=__i2c_port-1
                 	.equ __i2c_pin=__i2c_port-2
                 
                 _i2c_init:
000a78 98c0      	cbi  __i2c_port,__scl_bit
000a79 98c1      	cbi  __i2c_port,__sda_bit
000a7a 9ab8      	sbi  __i2c_dir,__scl_bit
000a7b 98b9      	cbi  __i2c_dir,__sda_bit
000a7c c015      	rjmp __i2c_delay2
                 _i2c_start:
000a7d 98b9      	cbi  __i2c_dir,__sda_bit
000a7e 98b8      	cbi  __i2c_dir,__scl_bit
000a7f 27ee      	clr  r30
000a80 0000      	nop
000a81 9bb1      	sbis __i2c_pin,__sda_bit
000a82 9508      	ret
000a83 9bb0      	sbis __i2c_pin,__scl_bit
000a84 9508      	ret
000a85 d004      	rcall __i2c_delay1
000a86 9ab9      	sbi  __i2c_dir,__sda_bit
000a87 d002      	rcall __i2c_delay1
000a88 9ab8      	sbi  __i2c_dir,__scl_bit
000a89 e0e1      	ldi  r30,1
                 __i2c_delay1:
000a8a e06d      	ldi  r22,13
000a8b c007      	rjmp __i2c_delay2l
                 _i2c_stop:
000a8c 9ab9      	sbi  __i2c_dir,__sda_bit
000a8d 9ab8      	sbi  __i2c_dir,__scl_bit
000a8e d003      	rcall __i2c_delay2
000a8f 98b8      	cbi  __i2c_dir,__scl_bit
000a90 dff9      	rcall __i2c_delay1
000a91 98b9      	cbi  __i2c_dir,__sda_bit
                 __i2c_delay2:
000a92 e16b      	ldi  r22,27
                 __i2c_delay2l:
000a93 956a      	dec  r22
000a94 f7f1      	brne __i2c_delay2l
000a95 9508      	ret
                 _i2c_read:
000a96 e078      	ldi  r23,8
                 __i2c_read0:
000a97 98b8      	cbi  __i2c_dir,__scl_bit
000a98 dff1      	rcall __i2c_delay1
                 __i2c_read3:
000a99 9bb0      	sbis __i2c_pin,__scl_bit
000a9a cffe      	rjmp __i2c_read3
000a9b dfee      	rcall __i2c_delay1
000a9c 9488      	clc
000a9d 99b1      	sbic __i2c_pin,__sda_bit
000a9e 9408      	sec
000a9f 9ab8      	sbi  __i2c_dir,__scl_bit
000aa0 dff1      	rcall __i2c_delay2
000aa1 1fee      	rol  r30
000aa2 957a      	dec  r23
000aa3 f799      	brne __i2c_read0
000aa4 2f7a      	mov  r23,r26
000aa5 2377      	tst  r23
000aa6 f411      	brne __i2c_read1
000aa7 98b9      	cbi  __i2c_dir,__sda_bit
000aa8 c001      	rjmp __i2c_read2
                 __i2c_read1:
000aa9 9ab9      	sbi  __i2c_dir,__sda_bit
                 __i2c_read2:
000aaa dfdf      	rcall __i2c_delay1
000aab 98b8      	cbi  __i2c_dir,__scl_bit
000aac dfe5      	rcall __i2c_delay2
000aad 9ab8      	sbi  __i2c_dir,__scl_bit
000aae dfdb      	rcall __i2c_delay1
000aaf 98b9      	cbi  __i2c_dir,__sda_bit
000ab0 cfd9      	rjmp __i2c_delay1
                 
                 _i2c_write:
000ab1 e078      	ldi  r23,8
                 __i2c_write0:
000ab2 0faa      	lsl  r26
000ab3 f410      	brcc __i2c_write1
000ab4 98b9      	cbi  __i2c_dir,__sda_bit
000ab5 c001      	rjmp __i2c_write2
                 __i2c_write1:
000ab6 9ab9      	sbi  __i2c_dir,__sda_bit
                 __i2c_write2:
000ab7 dfda      	rcall __i2c_delay2
000ab8 98b8      	cbi  __i2c_dir,__scl_bit
000ab9 dfd0      	rcall __i2c_delay1
                 __i2c_write3:
000aba 9bb0      	sbis __i2c_pin,__scl_bit
000abb cffe      	rjmp __i2c_write3
000abc dfcd      	rcall __i2c_delay1
000abd 9ab8      	sbi  __i2c_dir,__scl_bit
000abe 957a      	dec  r23
000abf f791      	brne __i2c_write0
000ac0 98b9      	cbi  __i2c_dir,__sda_bit
000ac1 dfc8      	rcall __i2c_delay1
000ac2 98b8      	cbi  __i2c_dir,__scl_bit
000ac3 dfce      	rcall __i2c_delay2
000ac4 e0e1      	ldi  r30,1
000ac5 99b1      	sbic __i2c_pin,__sda_bit
000ac6 27ee      	clr  r30
000ac7 9ab8      	sbi  __i2c_dir,__scl_bit
000ac8 cfc1      	rjmp __i2c_delay1
                 
                 _delay_ms:
000ac9 9610      	adiw r26,0
000aca f039      	breq __delay_ms1
                 __delay_ms0:
                +
000acb ed80     +LDI R24 , LOW ( 0x7D0 )
000acc e097     +LDI R25 , HIGH ( 0x7D0 )
                +__DELAY_USW_LOOP :
000acd 9701     +SBIW R24 , 1
000ace f7f1     +BRNE __DELAY_USW_LOOP
                 	__DELAY_USW 0x7D0
000acf 95a8      	wdr
000ad0 9711      	sbiw r26,1
000ad1 f7c9      	brne __delay_ms0
                 __delay_ms1:
000ad2 9508      	ret
                 
                 _frexp:
000ad3 91e9      	LD   R30,Y+
000ad4 91f9      	LD   R31,Y+
000ad5 9169      	LD   R22,Y+
000ad6 9179      	LD   R23,Y+
000ad7 fb77      	BST  R23,7
000ad8 0f66      	LSL  R22
000ad9 1f77      	ROL  R23
000ada 2788      	CLR  R24
000adb 577e      	SUBI R23,0x7E
000adc 0b88      	SBC  R24,R24
000add 937d      	ST   X+,R23
000ade 938c      	ST   X,R24
000adf e77e      	LDI  R23,0x7E
000ae0 9576      	LSR  R23
000ae1 9567      	ROR  R22
000ae2 f06e      	BRTS __ANEGF1
000ae3 9508      	RET
                 
                 _ldexp:
000ae4 91e9      	LD   R30,Y+
000ae5 91f9      	LD   R31,Y+
000ae6 9169      	LD   R22,Y+
000ae7 9179      	LD   R23,Y+
000ae8 fb77      	BST  R23,7
000ae9 0f66      	LSL  R22
000aea 1f77      	ROL  R23
000aeb 0f7a      	ADD  R23,R26
000aec 9576      	LSR  R23
000aed 9567      	ROR  R22
000aee f00e      	BRTS __ANEGF1
000aef 9508      	RET
                 
                 __ANEGF1:
000af0 9730      	SBIW R30,0
000af1 4060      	SBCI R22,0
000af2 4070      	SBCI R23,0
000af3 f009      	BREQ __ANEGF10
000af4 5870      	SUBI R23,0x80
                 __ANEGF10:
000af5 9508      	RET
                 
                 __ROUND_REPACK:
000af6 2355      	TST  R21
000af7 f442      	BRPL __REPACK
000af8 3850      	CPI  R21,0x80
000af9 f411      	BRNE __ROUND_REPACK0
000afa ffe0      	SBRS R30,0
000afb c004      	RJMP __REPACK
                 __ROUND_REPACK0:
000afc 9631      	ADIW R30,1
000afd 1f69      	ADC  R22,R25
000afe 1f79      	ADC  R23,R25
000aff f06b      	BRVS __REPACK1
                 
                 __REPACK:
000b00 e850      	LDI  R21,0x80
000b01 2757      	EOR  R21,R23
000b02 f411      	BRNE __REPACK0
000b03 935f      	PUSH R21
000b04 c0cf      	RJMP __ZERORES
                 __REPACK0:
000b05 3f5f      	CPI  R21,0xFF
000b06 f031      	BREQ __REPACK1
000b07 0f66      	LSL  R22
000b08 0c00      	LSL  R0
000b09 9557      	ROR  R21
000b0a 9567      	ROR  R22
000b0b 2f75      	MOV  R23,R21
000b0c 9508      	RET
                 __REPACK1:
000b0d 935f      	PUSH R21
000b0e 2000      	TST  R0
000b0f f00a      	BRMI __REPACK2
000b10 c0cf      	RJMP __MAXRES
                 __REPACK2:
000b11 c0c8      	RJMP __MINRES
                 
                 __UNPACK:
000b12 e850      	LDI  R21,0x80
000b13 2e19      	MOV  R1,R25
000b14 2215      	AND  R1,R21
000b15 0f88      	LSL  R24
000b16 1f99      	ROL  R25
000b17 2795      	EOR  R25,R21
000b18 0f55      	LSL  R21
000b19 9587      	ROR  R24
                 
                 __UNPACK1:
000b1a e850      	LDI  R21,0x80
000b1b 2e07      	MOV  R0,R23
000b1c 2205      	AND  R0,R21
000b1d 0f66      	LSL  R22
000b1e 1f77      	ROL  R23
000b1f 2775      	EOR  R23,R21
000b20 0f55      	LSL  R21
000b21 9567      	ROR  R22
000b22 9508      	RET
                 
                 __CFD1U:
000b23 9468      	SET
000b24 c001      	RJMP __CFD1U0
                 __CFD1:
000b25 94e8      	CLT
                 __CFD1U0:
000b26 935f      	PUSH R21
000b27 dff2      	RCALL __UNPACK1
000b28 3870      	CPI  R23,0x80
000b29 f018      	BRLO __CFD10
000b2a 3f7f      	CPI  R23,0xFF
000b2b f408      	BRCC __CFD10
000b2c c0a7      	RJMP __ZERORES
                 __CFD10:
000b2d e156      	LDI  R21,22
000b2e 1b57      	SUB  R21,R23
000b2f f4aa      	BRPL __CFD11
000b30 9551      	NEG  R21
000b31 3058      	CPI  R21,8
000b32 f40e      	BRTC __CFD19
000b33 3059      	CPI  R21,9
                 __CFD19:
000b34 f030      	BRLO __CFD17
000b35 efef      	SER  R30
000b36 efff      	SER  R31
000b37 ef6f      	SER  R22
000b38 e77f      	LDI  R23,0x7F
000b39 f977      	BLD  R23,7
000b3a c01a      	RJMP __CFD15
                 __CFD17:
000b3b 2777      	CLR  R23
000b3c 2355      	TST  R21
000b3d f0b9      	BREQ __CFD15
                 __CFD18:
000b3e 0fee      	LSL  R30
000b3f 1fff      	ROL  R31
000b40 1f66      	ROL  R22
000b41 1f77      	ROL  R23
000b42 955a      	DEC  R21
000b43 f7d1      	BRNE __CFD18
000b44 c010      	RJMP __CFD15
                 __CFD11:
000b45 2777      	CLR  R23
                 __CFD12:
000b46 3058      	CPI  R21,8
000b47 f028      	BRLO __CFD13
000b48 2fef      	MOV  R30,R31
000b49 2ff6      	MOV  R31,R22
000b4a 2f67      	MOV  R22,R23
000b4b 5058      	SUBI R21,8
000b4c cff9      	RJMP __CFD12
                 __CFD13:
000b4d 2355      	TST  R21
000b4e f031      	BREQ __CFD15
                 __CFD14:
000b4f 9576      	LSR  R23
000b50 9567      	ROR  R22
000b51 95f7      	ROR  R31
000b52 95e7      	ROR  R30
000b53 955a      	DEC  R21
000b54 f7d1      	BRNE __CFD14
                 __CFD15:
000b55 2000      	TST  R0
000b56 f40a      	BRPL __CFD16
000b57 d17c      	RCALL __ANEGD1
                 __CFD16:
000b58 915f      	POP  R21
000b59 9508      	RET
                 
                 __CDF1U:
000b5a 9468      	SET
000b5b c001      	RJMP __CDF1U0
                 __CDF1:
000b5c 94e8      	CLT
                 __CDF1U0:
000b5d 9730      	SBIW R30,0
000b5e 4060      	SBCI R22,0
000b5f 4070      	SBCI R23,0
000b60 f0b1      	BREQ __CDF10
000b61 2400      	CLR  R0
000b62 f026      	BRTS __CDF11
000b63 2377      	TST  R23
000b64 f412      	BRPL __CDF11
000b65 9400      	COM  R0
000b66 d16d      	RCALL __ANEGD1
                 __CDF11:
000b67 2e17      	MOV  R1,R23
000b68 e17e      	LDI  R23,30
000b69 2011      	TST  R1
                 __CDF12:
000b6a f032      	BRMI __CDF13
000b6b 957a      	DEC  R23
000b6c 0fee      	LSL  R30
000b6d 1fff      	ROL  R31
000b6e 1f66      	ROL  R22
000b6f 1c11      	ROL  R1
000b70 cff9      	RJMP __CDF12
                 __CDF13:
000b71 2fef      	MOV  R30,R31
000b72 2ff6      	MOV  R31,R22
000b73 2d61      	MOV  R22,R1
000b74 935f      	PUSH R21
000b75 df8a      	RCALL __REPACK
000b76 915f      	POP  R21
                 __CDF10:
000b77 9508      	RET
                 
                 __SWAPACC:
000b78 934f      	PUSH R20
000b79 01af      	MOVW R20,R30
000b7a 01fd      	MOVW R30,R26
000b7b 01da      	MOVW R26,R20
000b7c 01ab      	MOVW R20,R22
000b7d 01bc      	MOVW R22,R24
000b7e 01ca      	MOVW R24,R20
000b7f 2d40      	MOV  R20,R0
000b80 2c01      	MOV  R0,R1
000b81 2e14      	MOV  R1,R20
000b82 914f      	POP  R20
000b83 9508      	RET
                 
                 __UADD12:
000b84 0fea      	ADD  R30,R26
000b85 1ffb      	ADC  R31,R27
000b86 1f68      	ADC  R22,R24
000b87 9508      	RET
                 
                 __NEGMAN1:
000b88 95e0      	COM  R30
000b89 95f0      	COM  R31
000b8a 9560      	COM  R22
000b8b 5fef      	SUBI R30,-1
000b8c 4fff      	SBCI R31,-1
000b8d 4f6f      	SBCI R22,-1
000b8e 9508      	RET
                 
                 __SUBF12:
000b8f 935f      	PUSH R21
000b90 df81      	RCALL __UNPACK
000b91 3890      	CPI  R25,0x80
000b92 f171      	BREQ __ADDF129
000b93 e850      	LDI  R21,0x80
000b94 2615      	EOR  R1,R21
                 
000b95 c004      	RJMP __ADDF120
                 
                 __ADDF12:
000b96 935f      	PUSH R21
000b97 df7a      	RCALL __UNPACK
000b98 3890      	CPI  R25,0x80
000b99 f139      	BREQ __ADDF129
                 
                 __ADDF120:
000b9a 3870      	CPI  R23,0x80
000b9b f121      	BREQ __ADDF128
                 __ADDF121:
000b9c 2f57      	MOV  R21,R23
000b9d 1b59      	SUB  R21,R25
000b9e f12b      	BRVS __ADDF1211
000b9f f412      	BRPL __ADDF122
000ba0 dfd7      	RCALL __SWAPACC
000ba1 cffa      	RJMP __ADDF121
                 __ADDF122:
000ba2 3158      	CPI  R21,24
000ba3 f018      	BRLO __ADDF123
000ba4 27aa      	CLR  R26
000ba5 27bb      	CLR  R27
000ba6 2788      	CLR  R24
                 __ADDF123:
000ba7 3058      	CPI  R21,8
000ba8 f028      	BRLO __ADDF124
000ba9 2fab      	MOV  R26,R27
000baa 2fb8      	MOV  R27,R24
000bab 2788      	CLR  R24
000bac 5058      	SUBI R21,8
000bad cff9      	RJMP __ADDF123
                 __ADDF124:
000bae 2355      	TST  R21
000baf f029      	BREQ __ADDF126
                 __ADDF125:
000bb0 9586      	LSR  R24
000bb1 95b7      	ROR  R27
000bb2 95a7      	ROR  R26
000bb3 955a      	DEC  R21
000bb4 f7d9      	BRNE __ADDF125
                 __ADDF126:
000bb5 2d50      	MOV  R21,R0
000bb6 2551      	EOR  R21,R1
000bb7 f072      	BRMI __ADDF127
000bb8 dfcb      	RCALL __UADD12
000bb9 f438      	BRCC __ADDF129
000bba 9567      	ROR  R22
000bbb 95f7      	ROR  R31
000bbc 95e7      	ROR  R30
000bbd 9573      	INC  R23
000bbe f413      	BRVC __ADDF129
000bbf c020      	RJMP __MAXRES
                 __ADDF128:
000bc0 dfb7      	RCALL __SWAPACC
                 __ADDF129:
000bc1 df3e      	RCALL __REPACK
000bc2 915f      	POP  R21
000bc3 9508      	RET
                 __ADDF1211:
000bc4 f7d8      	BRCC __ADDF128
000bc5 cffb      	RJMP __ADDF129
                 __ADDF127:
000bc6 1bea      	SUB  R30,R26
000bc7 0bfb      	SBC  R31,R27
000bc8 0b68      	SBC  R22,R24
000bc9 f051      	BREQ __ZERORES
000bca f410      	BRCC __ADDF1210
000bcb 9400      	COM  R0
000bcc dfbb      	RCALL __NEGMAN1
                 __ADDF1210:
000bcd 2366      	TST  R22
000bce f392      	BRMI __ADDF129
000bcf 0fee      	LSL  R30
000bd0 1fff      	ROL  R31
000bd1 1f66      	ROL  R22
000bd2 957a      	DEC  R23
000bd3 f7cb      	BRVC __ADDF1210
                 
                 __ZERORES:
000bd4 27ee      	CLR  R30
000bd5 27ff      	CLR  R31
000bd6 2766      	CLR  R22
000bd7 2777      	CLR  R23
000bd8 915f      	POP  R21
000bd9 9508      	RET
                 
                 __MINRES:
000bda efef      	SER  R30
000bdb efff      	SER  R31
000bdc e76f      	LDI  R22,0x7F
000bdd ef7f      	SER  R23
000bde 915f      	POP  R21
000bdf 9508      	RET
                 
                 __MAXRES:
000be0 efef      	SER  R30
000be1 efff      	SER  R31
000be2 e76f      	LDI  R22,0x7F
000be3 e77f      	LDI  R23,0x7F
000be4 915f      	POP  R21
000be5 9508      	RET
                 
                 __MULF12:
000be6 935f      	PUSH R21
000be7 df2a      	RCALL __UNPACK
000be8 3870      	CPI  R23,0x80
000be9 f351      	BREQ __ZERORES
000bea 3890      	CPI  R25,0x80
000beb f341      	BREQ __ZERORES
000bec 2401      	EOR  R0,R1
000bed 9408      	SEC
000bee 1f79      	ADC  R23,R25
000bef f423      	BRVC __MULF124
000bf0 f31c      	BRLT __ZERORES
                 __MULF125:
000bf1 2000      	TST  R0
000bf2 f33a      	BRMI __MINRES
000bf3 cfec      	RJMP __MAXRES
                 __MULF124:
000bf4 920f      	PUSH R0
000bf5 931f      	PUSH R17
000bf6 932f      	PUSH R18
000bf7 933f      	PUSH R19
000bf8 934f      	PUSH R20
000bf9 2711      	CLR  R17
000bfa 2722      	CLR  R18
000bfb 2799      	CLR  R25
000bfc 9f68      	MUL  R22,R24
000bfd 01a0      	MOVW R20,R0
000bfe 9f8f      	MUL  R24,R31
000bff 2d30      	MOV  R19,R0
000c00 0d41      	ADD  R20,R1
000c01 1f59      	ADC  R21,R25
000c02 9f6b      	MUL  R22,R27
000c03 0d30      	ADD  R19,R0
000c04 1d41      	ADC  R20,R1
000c05 1f59      	ADC  R21,R25
000c06 9f8e      	MUL  R24,R30
000c07 d027      	RCALL __MULF126
000c08 9fbf      	MUL  R27,R31
000c09 d025      	RCALL __MULF126
000c0a 9f6a      	MUL  R22,R26
000c0b d023      	RCALL __MULF126
000c0c 9fbe      	MUL  R27,R30
000c0d d01d      	RCALL __MULF127
000c0e 9faf      	MUL  R26,R31
000c0f d01b      	RCALL __MULF127
000c10 9fae      	MUL  R26,R30
000c11 0d11      	ADD  R17,R1
000c12 1f29      	ADC  R18,R25
000c13 1f39      	ADC  R19,R25
000c14 1f49      	ADC  R20,R25
000c15 1f59      	ADC  R21,R25
000c16 2fe3      	MOV  R30,R19
000c17 2ff4      	MOV  R31,R20
000c18 2f65      	MOV  R22,R21
000c19 2f52      	MOV  R21,R18
000c1a 914f      	POP  R20
000c1b 913f      	POP  R19
000c1c 912f      	POP  R18
000c1d 911f      	POP  R17
000c1e 900f      	POP  R0
000c1f 2366      	TST  R22
000c20 f02a      	BRMI __MULF122
000c21 0f55      	LSL  R21
000c22 1fee      	ROL  R30
000c23 1fff      	ROL  R31
000c24 1f66      	ROL  R22
000c25 c002      	RJMP __MULF123
                 __MULF122:
000c26 9573      	INC  R23
000c27 f24b      	BRVS __MULF125
                 __MULF123:
000c28 decd      	RCALL __ROUND_REPACK
000c29 915f      	POP  R21
000c2a 9508      	RET
                 
                 __MULF127:
000c2b 0d10      	ADD  R17,R0
000c2c 1d21      	ADC  R18,R1
000c2d 1f39      	ADC  R19,R25
000c2e c002      	RJMP __MULF128
                 __MULF126:
000c2f 0d20      	ADD  R18,R0
000c30 1d31      	ADC  R19,R1
                 __MULF128:
000c31 1f49      	ADC  R20,R25
000c32 1f59      	ADC  R21,R25
000c33 9508      	RET
                 
                 __DIVF21:
000c34 935f      	PUSH R21
000c35 dedc      	RCALL __UNPACK
000c36 3870      	CPI  R23,0x80
000c37 f421      	BRNE __DIVF210
000c38 2011      	TST  R1
                 __DIVF211:
000c39 f40a      	BRPL __DIVF219
000c3a cf9f      	RJMP __MINRES
                 __DIVF219:
000c3b cfa4      	RJMP __MAXRES
                 __DIVF210:
000c3c 3890      	CPI  R25,0x80
000c3d f409      	BRNE __DIVF218
                 __DIVF217:
000c3e cf95      	RJMP __ZERORES
                 __DIVF218:
000c3f 2401      	EOR  R0,R1
000c40 9408      	SEC
000c41 0b97      	SBC  R25,R23
000c42 f41b      	BRVC __DIVF216
000c43 f3d4      	BRLT __DIVF217
000c44 2000      	TST  R0
000c45 cff3      	RJMP __DIVF211
                 __DIVF216:
000c46 2f79      	MOV  R23,R25
000c47 931f      	PUSH R17
000c48 932f      	PUSH R18
000c49 933f      	PUSH R19
000c4a 934f      	PUSH R20
000c4b 2411      	CLR  R1
000c4c 2711      	CLR  R17
000c4d 2722      	CLR  R18
000c4e 2733      	CLR  R19
000c4f 2744      	CLR  R20
000c50 2755      	CLR  R21
000c51 e290      	LDI  R25,32
                 __DIVF212:
000c52 17ae      	CP   R26,R30
000c53 07bf      	CPC  R27,R31
000c54 0786      	CPC  R24,R22
000c55 0741      	CPC  R20,R17
000c56 f030      	BRLO __DIVF213
000c57 1bae      	SUB  R26,R30
000c58 0bbf      	SBC  R27,R31
000c59 0b86      	SBC  R24,R22
000c5a 0b41      	SBC  R20,R17
000c5b 9408      	SEC
000c5c c001      	RJMP __DIVF214
                 __DIVF213:
000c5d 9488      	CLC
                 __DIVF214:
000c5e 1f55      	ROL  R21
000c5f 1f22      	ROL  R18
000c60 1f33      	ROL  R19
000c61 1c11      	ROL  R1
000c62 1faa      	ROL  R26
000c63 1fbb      	ROL  R27
000c64 1f88      	ROL  R24
000c65 1f44      	ROL  R20
000c66 959a      	DEC  R25
000c67 f751      	BRNE __DIVF212
000c68 01f9      	MOVW R30,R18
000c69 2d61      	MOV  R22,R1
000c6a 914f      	POP  R20
000c6b 913f      	POP  R19
000c6c 912f      	POP  R18
000c6d 911f      	POP  R17
000c6e 2366      	TST  R22
000c6f f032      	BRMI __DIVF215
000c70 0f55      	LSL  R21
000c71 1fee      	ROL  R30
000c72 1fff      	ROL  R31
000c73 1f66      	ROL  R22
000c74 957a      	DEC  R23
000c75 f243      	BRVS __DIVF217
                 __DIVF215:
000c76 de7f      	RCALL __ROUND_REPACK
000c77 915f      	POP  R21
000c78 9508      	RET
                 
                 __CMPF12:
000c79 2399      	TST  R25
000c7a f09a      	BRMI __CMPF120
000c7b 2377      	TST  R23
000c7c f042      	BRMI __CMPF121
000c7d 1797      	CP   R25,R23
000c7e f048      	BRLO __CMPF122
000c7f f429      	BRNE __CMPF121
000c80 17ae      	CP   R26,R30
000c81 07bf      	CPC  R27,R31
000c82 0786      	CPC  R24,R22
000c83 f020      	BRLO __CMPF122
000c84 f031      	BREQ __CMPF123
                 __CMPF121:
000c85 9498      	CLZ
000c86 9488      	CLC
000c87 9508      	RET
                 __CMPF122:
000c88 9498      	CLZ
000c89 9408      	SEC
000c8a 9508      	RET
                 __CMPF123:
000c8b 9418      	SEZ
000c8c 9488      	CLC
000c8d 9508      	RET
                 __CMPF120:
000c8e 2377      	TST  R23
000c8f f7c2      	BRPL __CMPF122
000c90 1797      	CP   R25,R23
000c91 f398      	BRLO __CMPF121
000c92 f7a9      	BRNE __CMPF122
000c93 17ea      	CP   R30,R26
000c94 07fb      	CPC  R31,R27
000c95 0768      	CPC  R22,R24
000c96 f388      	BRLO __CMPF122
000c97 f399      	BREQ __CMPF123
000c98 cfec      	RJMP __CMPF121
                 
                 _sqrt:
000c99 d0a1      	rcall __PUTPARD2
000c9a 9724      	sbiw r28,4
000c9b 935f      	push r21
000c9c 819f      	ldd  r25,y+7
000c9d 2399      	tst  r25
000c9e f411      	brne __sqrt0
000c9f 9628      	adiw r28,8
000ca0 cf33      	rjmp __zerores
                 __sqrt0:
000ca1 f412      	brpl __sqrt1
000ca2 9628      	adiw r28,8
000ca3 cf3c      	rjmp __maxres
                 __sqrt1:
000ca4 934f      	push r20
000ca5 e442      	ldi  r20,66
000ca6 818e      	ldd  r24,y+6
000ca7 81bd      	ldd  r27,y+5
000ca8 81ac      	ldd  r26,y+4
                 __sqrt2:
000ca9 8388      	st   y,r24
000caa 8399      	std  y+1,r25
000cab 83aa      	std  y+2,r26
000cac 83bb      	std  y+3,r27
000cad 01fd      	movw r30,r26
000cae 01bc      	movw r22,r24
000caf 81ac      	ldd  r26,y+4
000cb0 81bd      	ldd  r27,y+5
000cb1 818e      	ldd  r24,y+6
000cb2 819f      	ldd  r25,y+7
000cb3 df80      	rcall __divf21
000cb4 8188      	ld   r24,y
000cb5 8199      	ldd  r25,y+1
000cb6 81aa      	ldd  r26,y+2
000cb7 81bb      	ldd  r27,y+3
000cb8 dedd      	rcall __addf12
000cb9 de60      	rcall __unpack1
000cba 957a      	dec  r23
000cbb de44      	rcall __repack
000cbc 8188      	ld   r24,y
000cbd 8199      	ldd  r25,y+1
000cbe 81aa      	ldd  r26,y+2
000cbf 81bb      	ldd  r27,y+3
000cc0 27ae      	eor  r26,r30
000cc1 7fa8      	andi r26,0xf8
000cc2 f421      	brne __sqrt4
000cc3 17bf      	cp   r27,r31
000cc4 0786      	cpc  r24,r22
000cc5 0797      	cpc  r25,r23
000cc6 f029      	breq __sqrt3
                 __sqrt4:
000cc7 954a      	dec  r20
000cc8 f019      	breq __sqrt3
000cc9 01df      	movw r26,r30
000cca 01cb      	movw r24,r22
000ccb cfdd      	rjmp __sqrt2
                 __sqrt3:
000ccc 914f      	pop  r20
000ccd 915f      	pop  r21
000cce 9628      	adiw r28,8
000ccf 9508      	ret
                 
                 __ANEGW1:
000cd0 95f1      	NEG  R31
000cd1 95e1      	NEG  R30
000cd2 40f0      	SBCI R31,0
000cd3 9508      	RET
                 
                 __ANEGD1:
000cd4 95f0      	COM  R31
000cd5 9560      	COM  R22
000cd6 9570      	COM  R23
000cd7 95e1      	NEG  R30
000cd8 4fff      	SBCI R31,-1
000cd9 4f6f      	SBCI R22,-1
000cda 4f7f      	SBCI R23,-1
000cdb 9508      	RET
                 
                 __CWD1:
000cdc 2f6f      	MOV  R22,R31
000cdd 0f66      	ADD  R22,R22
000cde 0b66      	SBC  R22,R22
000cdf 2f76      	MOV  R23,R22
000ce0 9508      	RET
                 
                 __MULW12U:
000ce1 9ffa      	MUL  R31,R26
000ce2 2df0      	MOV  R31,R0
000ce3 9feb      	MUL  R30,R27
000ce4 0df0      	ADD  R31,R0
000ce5 9fea      	MUL  R30,R26
000ce6 2de0      	MOV  R30,R0
000ce7 0df1      	ADD  R31,R1
000ce8 9508      	RET
                 
                 __MULW12:
000ce9 d02a      	RCALL __CHKSIGNW
000cea dff6      	RCALL __MULW12U
000ceb f40e      	BRTC __MULW121
000cec dfe3      	RCALL __ANEGW1
                 __MULW121:
000ced 9508      	RET
                 
                 __DIVW21U:
000cee 2400      	CLR  R0
000cef 2411      	CLR  R1
000cf0 e190      	LDI  R25,16
                 __DIVW21U1:
000cf1 0faa      	LSL  R26
000cf2 1fbb      	ROL  R27
000cf3 1c00      	ROL  R0
000cf4 1c11      	ROL  R1
000cf5 1a0e      	SUB  R0,R30
000cf6 0a1f      	SBC  R1,R31
000cf7 f418      	BRCC __DIVW21U2
000cf8 0e0e      	ADD  R0,R30
000cf9 1e1f      	ADC  R1,R31
000cfa c001      	RJMP __DIVW21U3
                 __DIVW21U2:
000cfb 60a1      	SBR  R26,1
                 __DIVW21U3:
000cfc 959a      	DEC  R25
000cfd f799      	BRNE __DIVW21U1
000cfe 01fd      	MOVW R30,R26
000cff 01d0      	MOVW R26,R0
000d00 9508      	RET
                 
                 __DIVW21:
000d01 d012      	RCALL __CHKSIGNW
000d02 dfeb      	RCALL __DIVW21U
000d03 f40e      	BRTC __DIVW211
000d04 dfcb      	RCALL __ANEGW1
                 __DIVW211:
000d05 9508      	RET
                 
                 __MODW21:
000d06 94e8      	CLT
000d07 ffb7      	SBRS R27,7
000d08 c004      	RJMP __MODW211
000d09 95a0      	COM  R26
000d0a 95b0      	COM  R27
000d0b 9611      	ADIW R26,1
000d0c 9468      	SET
                 __MODW211:
000d0d fdf7      	SBRC R31,7
000d0e dfc1      	RCALL __ANEGW1
000d0f dfde      	RCALL __DIVW21U
000d10 01fd      	MOVW R30,R26
000d11 f40e      	BRTC __MODW212
000d12 dfbd      	RCALL __ANEGW1
                 __MODW212:
000d13 9508      	RET
                 
                 __CHKSIGNW:
000d14 94e8      	CLT
000d15 fff7      	SBRS R31,7
000d16 c002      	RJMP __CHKSW1
000d17 dfb8      	RCALL __ANEGW1
000d18 9468      	SET
                 __CHKSW1:
000d19 ffb7      	SBRS R27,7
000d1a c006      	RJMP __CHKSW2
000d1b 95a0      	COM  R26
000d1c 95b0      	COM  R27
000d1d 9611      	ADIW R26,1
000d1e f800      	BLD  R0,0
000d1f 9403      	INC  R0
000d20 fa00      	BST  R0,0
                 __CHKSW2:
000d21 9508      	RET
                 
                 __PUTDP1:
000d22 93ed      	ST   X+,R30
000d23 93fd      	ST   X+,R31
000d24 936d      	ST   X+,R22
000d25 937c      	ST   X,R23
000d26 9508      	RET
                 
                 __GETD1S0:
000d27 81e8      	LD   R30,Y
000d28 81f9      	LDD  R31,Y+1
000d29 816a      	LDD  R22,Y+2
000d2a 817b      	LDD  R23,Y+3
000d2b 9508      	RET
                 
                 __GETD2S0:
000d2c 81a8      	LD   R26,Y
000d2d 81b9      	LDD  R27,Y+1
000d2e 818a      	LDD  R24,Y+2
000d2f 819b      	LDD  R25,Y+3
000d30 9508      	RET
                 
                 __PUTD1S0:
000d31 83e8      	ST   Y,R30
000d32 83f9      	STD  Y+1,R31
000d33 836a      	STD  Y+2,R22
000d34 837b      	STD  Y+3,R23
000d35 9508      	RET
                 
                 __PUTPARD1:
000d36 937a      	ST   -Y,R23
000d37 936a      	ST   -Y,R22
000d38 93fa      	ST   -Y,R31
000d39 93ea      	ST   -Y,R30
000d3a 9508      	RET
                 
                 __PUTPARD2:
000d3b 939a      	ST   -Y,R25
000d3c 938a      	ST   -Y,R24
000d3d 93ba      	ST   -Y,R27
000d3e 93aa      	ST   -Y,R26
000d3f 9508      	RET
                 
                 __SWAPD12:
000d40 2e18      	MOV  R1,R24
000d41 2f86      	MOV  R24,R22
000d42 2d61      	MOV  R22,R1
000d43 2e19      	MOV  R1,R25
000d44 2f97      	MOV  R25,R23
000d45 2d71      	MOV  R23,R1
                 
                 __SWAPW12:
000d46 2e1b      	MOV  R1,R27
000d47 2fbf      	MOV  R27,R31
000d48 2df1      	MOV  R31,R1
                 
                 __SWAPB12:
000d49 2e1a      	MOV  R1,R26
000d4a 2fae      	MOV  R26,R30
000d4b 2de1      	MOV  R30,R1
000d4c 9508      	RET
                 
                 __CPD10:
000d4d 9730      	SBIW R30,0
000d4e 4060      	SBCI R22,0
000d4f 4070      	SBCI R23,0
000d50 9508      	RET
                 
                 __CPW02:
000d51 2400      	CLR  R0
000d52 160a      	CP   R0,R26
000d53 060b      	CPC  R0,R27
000d54 9508      	RET
                 
                 __CPD02:
000d55 2400      	CLR  R0
000d56 160a      	CP   R0,R26
000d57 060b      	CPC  R0,R27
000d58 0608      	CPC  R0,R24
000d59 0609      	CPC  R0,R25
000d5a 9508      	RET
                 
                 __CPD12:
000d5b 17ea      	CP   R30,R26
000d5c 07fb      	CPC  R31,R27
000d5d 0768      	CPC  R22,R24
000d5e 0779      	CPC  R23,R25
000d5f 9508      	RET
                 
                 __SAVELOCR6:
000d60 935a      	ST   -Y,R21
                 __SAVELOCR5:
000d61 934a      	ST   -Y,R20
                 __SAVELOCR4:
000d62 933a      	ST   -Y,R19
                 __SAVELOCR3:
000d63 932a      	ST   -Y,R18
                 __SAVELOCR2:
000d64 931a      	ST   -Y,R17
000d65 930a      	ST   -Y,R16
000d66 9508      	RET
                 
                 __LOADLOCR6:
000d67 815d      	LDD  R21,Y+5
                 __LOADLOCR5:
000d68 814c      	LDD  R20,Y+4
                 __LOADLOCR4:
000d69 813b      	LDD  R19,Y+3
                 __LOADLOCR3:
000d6a 812a      	LDD  R18,Y+2
                 __LOADLOCR2:
000d6b 8119      	LDD  R17,Y+1
000d6c 8108      	LD   R16,Y
000d6d 9508      	RET
                 
                 ;END OF CODE MARKER
                 __END_OF_CODE:


RESOURCE USE INFORMATION
------------------------

Notice:
The register and instruction counts are symbol table hit counts,
and hence implicitly used resources are not counted, eg, the
'lpm' instruction without operands implicitly uses r0 and z,
none of which are counted.

x,y,z are separate entities in the symbol table and are
counted separately from r26..r31 here.

.dseg memory usage only counts static data declared with .byte

ATmega16A register use summary:
r0 :  53 r1 :  37 r2 :  10 r3 :   0 r4 :  18 r5 :   7 r6 :   7 r7 :   2 
r8 :  22 r9 :   7 r10:   2 r11:   2 r12:   7 r13:   3 r14:   0 r15:   2 
r16:  22 r17:  40 r18:  31 r19:  20 r20:  32 r21:  67 r22: 128 r23: 122 
r24: 106 r25:  92 r26: 315 r27: 161 r28:  21 r29:   1 r30: 569 r31: 227 
x  :  18 y  : 354 z  :   9 
Registers used: 33 out of 35 (94.3%)

ATmega16A instruction use summary:
.lds  :   0 .lds.l:   0 .sts  :   0 .sts.l:   0 adc   :  31 add   :  25 
adiw  :  24 and   :   5 andi  :  19 asr   :   0 bclr  :   0 bld   :  10 
brbc  :   0 brbs  :   0 brcc  :   9 brcs  :   2 break :   0 breq  :  38 
brge  :  14 brhc  :   0 brhs  :   0 brid  :   0 brie  :   0 brlo  :  16 
brlt  :  19 brmi  :  11 brne  :  83 brpl  :   9 brsh  :   9 brtc  :   5 
brts  :   3 brvc  :   4 brvs  :   4 bset  :   0 bst   :   5 call  : 363 
cbi   :  24 cbr   :   1 clc   :   4 clh   :   0 cli   :   1 cln   :   0 
clr   :  41 cls   :   0 clt   :   8 clv   :   0 clz   :   2 com   :  12 
cp    :  24 cpc   :  34 cpi   :  63 cpse  :   0 dec   :  19 des   :   0 
eor   :   8 fmul  :   0 fmuls :   0 fmulsu:   0 icall :   4 ijmp  :   0 
in    :  23 inc   :   3 jmp   :  34 ld    :  68 ldd   : 143 ldi   : 374 
lds   :  75 lpm   :   9 lsl   :  17 lsr   :   5 mov   :  57 movw  :  92 
mul   :  15 muls  :   0 mulsu :   0 neg   :   4 nop   :   1 or    :   1 
ori   :  16 out   :  62 pop   :  58 push  :  58 rcall :  98 ret   : 106 
reti  :   1 rjmp  : 148 rol   :  31 ror   :  17 sbc   :  14 sbci  :  18 
sbi   :  20 sbic  :   2 sbis  :   4 sbiw  :  52 sbr   :   3 sbrc  :   2 
sbrs  :   7 sec   :   6 seh   :   0 sei   :   0 sen   :   0 ser   :   8 
ses   :   0 set   :   8 sev   :   0 sez   :   1 sleep :   0 spm   :   0 
st    : 113 std   :  49 sts   :  43 sub   :  10 subi  :  27 swap  :   1 
tst   :  22 wdr   :   1 
Instructions used: 83 out of 116 (71.6%)

ATmega16A memory use summary [bytes]:
Segment   Begin    End      Code   Data   Used    Size   Use%
---------------------------------------------------------------
[.cseg] 0x000000 0x001adc   6788     88   6876   16384  42.0%
[.dseg] 0x000060 0x000192      0     50     50    1024   4.9%
[.eseg] 0x000000 0x000000      0      0      0     512   0.0%

Assembly complete, 0 errors, 16 warnings
